GAS LISTING /tmp/ccLu7FBN.s 			page 1


   1              		.file	"ConsumerProducer_C_API_test.cpp"
   2              		.option pic
   3              		.option norelax
   4              		.text
   5              	.Ltext0:
   6              		.align	2
   8              	_ZL16producerKeyboardPv:
   9              	.LFB23:
  10              		.file 1 "src/ConsumerProducer_C_API_test.cpp"
   1:src/ConsumerProducer_C_API_test.cpp **** 
   2:src/ConsumerProducer_C_API_test.cpp **** #include "../h/syscall_c.hpp"
   3:src/ConsumerProducer_C_API_test.cpp **** #include "../h/syscall_cpp.hpp"
   4:src/ConsumerProducer_C_API_test.cpp **** #include "../h/buffer.hpp"
   5:src/ConsumerProducer_C_API_test.cpp **** #include "../lib/console.h"
   6:src/ConsumerProducer_C_API_test.cpp **** 
   7:src/ConsumerProducer_C_API_test.cpp **** #include "../h/tcb.hpp"
   8:src/ConsumerProducer_C_API_test.cpp **** static sem_t waitForAll;
   9:src/ConsumerProducer_C_API_test.cpp **** 
  10:src/ConsumerProducer_C_API_test.cpp **** struct thread_data {
  11:src/ConsumerProducer_C_API_test.cpp ****     int id;
  12:src/ConsumerProducer_C_API_test.cpp ****     Buffer *buffer;
  13:src/ConsumerProducer_C_API_test.cpp ****     sem_t wait;
  14:src/ConsumerProducer_C_API_test.cpp **** };
  15:src/ConsumerProducer_C_API_test.cpp **** 
  16:src/ConsumerProducer_C_API_test.cpp **** static volatile int threadEnd = 0;
  17:src/ConsumerProducer_C_API_test.cpp **** 
  18:src/ConsumerProducer_C_API_test.cpp **** static void producerKeyboard(void *arg) {
  11              		.loc 1 18 41
  12              		.cfi_startproc
  13              	.LVL0:
  14 0000 130101FE 		addi	sp,sp,-32
  15              		.cfi_def_cfa_offset 32
  16 0004 233C1100 		sd	ra,24(sp)
  17 0008 23388100 		sd	s0,16(sp)
  18 000c 23349100 		sd	s1,8(sp)
  19 0010 23302101 		sd	s2,0(sp)
  20              		.cfi_offset 1, -8
  21              		.cfi_offset 8, -16
  22              		.cfi_offset 9, -24
  23              		.cfi_offset 18, -32
  24 0014 13040102 		addi	s0,sp,32
  25              		.cfi_def_cfa 8, 0
  26 0018 93040500 		mv	s1,a0
  19:src/ConsumerProducer_C_API_test.cpp ****     struct thread_data *data = (struct thread_data *) arg;
  27              		.loc 1 19 5
  28              	.LVL1:
  20:src/ConsumerProducer_C_API_test.cpp **** 
  21:src/ConsumerProducer_C_API_test.cpp ****     int key;
  29              		.loc 1 21 5
  22:src/ConsumerProducer_C_API_test.cpp ****     int i = 0;
  30              		.loc 1 22 5
  31              		.loc 1 22 9 is_stmt 0
  32 001c 13090000 		li	s2,0
  33 0020 6F00C000 		j	.L2
  34              	.LVL2:
  35              	.L6:
  23:src/ConsumerProducer_C_API_test.cpp ****     while ((key = getc()) != 'a') {//0x1b
GAS LISTING /tmp/ccLu7FBN.s 			page 2


  24:src/ConsumerProducer_C_API_test.cpp ****         data->buffer->put(key);
  25:src/ConsumerProducer_C_API_test.cpp ****         i++;
  26:src/ConsumerProducer_C_API_test.cpp **** 
  27:src/ConsumerProducer_C_API_test.cpp ****         if (i % (10 * data->id) == 0) {
  28:src/ConsumerProducer_C_API_test.cpp ****             thread_dispatch();
  36              		.loc 1 28 13 is_stmt 1
  37              		.loc 1 28 28 is_stmt 0
  38 0024 97000000 		call	_Z15thread_dispatchv@plt
  38      E7800000 
  39              	.LVL3:
  40              	.L2:
  23:src/ConsumerProducer_C_API_test.cpp ****     while ((key = getc()) != 'a') {//0x1b
  41              		.loc 1 23 5 is_stmt 1
  23:src/ConsumerProducer_C_API_test.cpp ****     while ((key = getc()) != 'a') {//0x1b
  42              		.loc 1 23 27
  23:src/ConsumerProducer_C_API_test.cpp ****     while ((key = getc()) != 'a') {//0x1b
  43              		.loc 1 23 23 is_stmt 0
  44 002c 97000000 		call	_Z4getcv@plt
  44      E7800000 
  45              	.LVL4:
  23:src/ConsumerProducer_C_API_test.cpp ****     while ((key = getc()) != 'a') {//0x1b
  46              		.loc 1 23 17
  47 0034 9B050500 		sext.w	a1,a0
  48              	.LVL5:
  23:src/ConsumerProducer_C_API_test.cpp ****     while ((key = getc()) != 'a') {//0x1b
  49              		.loc 1 23 27
  50 0038 93071006 		li	a5,97
  51 003c 638AF502 		beq	a1,a5,.L3
  24:src/ConsumerProducer_C_API_test.cpp ****         i++;
  52              		.loc 1 24 9 is_stmt 1
  24:src/ConsumerProducer_C_API_test.cpp ****         i++;
  53              		.loc 1 24 26 is_stmt 0
  54 0040 03B58400 		ld	a0,8(s1)
  55 0044 97000000 		call	_ZN6Buffer3putEi@plt
  55      E7800000 
  56              	.LVL6:
  25:src/ConsumerProducer_C_API_test.cpp **** 
  57              		.loc 1 25 9 is_stmt 1
  25:src/ConsumerProducer_C_API_test.cpp **** 
  58              		.loc 1 25 10 is_stmt 0
  59 004c 1B071900 		addiw	a4,s2,1
  60 0050 1B090700 		sext.w	s2,a4
  61              	.LVL7:
  27:src/ConsumerProducer_C_API_test.cpp ****             thread_dispatch();
  62              		.loc 1 27 9 is_stmt 1
  27:src/ConsumerProducer_C_API_test.cpp ****             thread_dispatch();
  63              		.loc 1 27 29 is_stmt 0
  64 0054 83A60400 		lw	a3,0(s1)
  27:src/ConsumerProducer_C_API_test.cpp ****             thread_dispatch();
  65              		.loc 1 27 21
  66 0058 9B972600 		slliw	a5,a3,2
  67 005c BB87D700 		addw	a5,a5,a3
  68 0060 9B971700 		slliw	a5,a5,1
  27:src/ConsumerProducer_C_API_test.cpp ****             thread_dispatch();
  69              		.loc 1 27 15
  70 0064 BB67F702 		remw	a5,a4,a5
  27:src/ConsumerProducer_C_API_test.cpp ****             thread_dispatch();
GAS LISTING /tmp/ccLu7FBN.s 			page 3


  71              		.loc 1 27 9
  72 0068 E39207FC 		bnez	a5,.L2
  73 006c 6FF09FFB 		j	.L6
  74              	.LVL8:
  75              	.L3:
  29:src/ConsumerProducer_C_API_test.cpp ****         }
  30:src/ConsumerProducer_C_API_test.cpp ****     }
  31:src/ConsumerProducer_C_API_test.cpp **** 
  32:src/ConsumerProducer_C_API_test.cpp ****     threadEnd = 1;
  76              		.loc 1 32 5 is_stmt 1
  77              		.loc 1 32 15 is_stmt 0
  78 0070 93071000 		li	a5,1
  79 0074 17070000 		sw	a5,.LANCHOR0,a4
  79      2320F700 
  33:src/ConsumerProducer_C_API_test.cpp ****     data->buffer->put('!');
  80              		.loc 1 33 5 is_stmt 1
  81              		.loc 1 33 22 is_stmt 0
  82 007c 93051002 		li	a1,33
  83              	.LVL9:
  84 0080 03B58400 		ld	a0,8(s1)
  85              	.LVL10:
  86 0084 97000000 		call	_ZN6Buffer3putEi@plt
  86      E7800000 
  87              	.LVL11:
  34:src/ConsumerProducer_C_API_test.cpp **** 
  35:src/ConsumerProducer_C_API_test.cpp ****     sem_signal(data->wait);
  88              		.loc 1 35 5 is_stmt 1
  89              		.loc 1 35 15 is_stmt 0
  90 008c 03B50401 		ld	a0,16(s1)
  91 0090 97000000 		call	_Z10sem_signalP11MySemaphore@plt
  91      E7800000 
  92              	.LVL12:
  36:src/ConsumerProducer_C_API_test.cpp **** }
  93              		.loc 1 36 1
  94 0098 83308101 		ld	ra,24(sp)
  95              		.cfi_restore 1
  96 009c 03340101 		ld	s0,16(sp)
  97              		.cfi_restore 8
  98              		.cfi_def_cfa 2, 32
  99 00a0 83348100 		ld	s1,8(sp)
 100              		.cfi_restore 9
 101              	.LVL13:
 102 00a4 03390100 		ld	s2,0(sp)
 103              		.cfi_restore 18
 104              	.LVL14:
 105 00a8 13010102 		addi	sp,sp,32
 106              		.cfi_def_cfa_offset 0
 107 00ac 67800000 		jr	ra
 108              		.cfi_endproc
 109              	.LFE23:
 111              		.align	2
 113              	_ZL8producerPv:
 114              	.LFB24:
  37:src/ConsumerProducer_C_API_test.cpp **** 
  38:src/ConsumerProducer_C_API_test.cpp **** static void producer(void *arg) {
 115              		.loc 1 38 33 is_stmt 1
 116              		.cfi_startproc
GAS LISTING /tmp/ccLu7FBN.s 			page 4


 117              	.LVL15:
 118 00b0 130101FE 		addi	sp,sp,-32
 119              		.cfi_def_cfa_offset 32
 120 00b4 233C1100 		sd	ra,24(sp)
 121 00b8 23388100 		sd	s0,16(sp)
 122 00bc 23349100 		sd	s1,8(sp)
 123 00c0 23302101 		sd	s2,0(sp)
 124              		.cfi_offset 1, -8
 125              		.cfi_offset 8, -16
 126              		.cfi_offset 9, -24
 127              		.cfi_offset 18, -32
 128 00c4 13040102 		addi	s0,sp,32
 129              		.cfi_def_cfa 8, 0
 130 00c8 93040500 		mv	s1,a0
  39:src/ConsumerProducer_C_API_test.cpp **** 
  40:src/ConsumerProducer_C_API_test.cpp ****     struct thread_data *data = (struct thread_data *) arg;
 131              		.loc 1 40 5
 132              	.LVL16:
  41:src/ConsumerProducer_C_API_test.cpp **** 
  42:src/ConsumerProducer_C_API_test.cpp ****     int i = 0;
 133              		.loc 1 42 5
 134              		.loc 1 42 9 is_stmt 0
 135 00cc 13090000 		li	s2,0
 136 00d0 6F00C000 		j	.L8
 137              	.LVL17:
 138              	.L12:
  43:src/ConsumerProducer_C_API_test.cpp ****     while (!threadEnd) {
  44:src/ConsumerProducer_C_API_test.cpp ****         data->buffer->put(data->id + '0');
  45:src/ConsumerProducer_C_API_test.cpp ****         i++;
  46:src/ConsumerProducer_C_API_test.cpp **** 
  47:src/ConsumerProducer_C_API_test.cpp ****         if (i % (10 * data->id) == 0) {
  48:src/ConsumerProducer_C_API_test.cpp ****             thread_dispatch();
 139              		.loc 1 48 13 is_stmt 1
 140              		.loc 1 48 28 is_stmt 0
 141 00d4 97000000 		call	_Z15thread_dispatchv@plt
 141      E7800000 
 142              	.LVL18:
 143              	.L8:
  43:src/ConsumerProducer_C_API_test.cpp ****     while (!threadEnd) {
 144              		.loc 1 43 5 is_stmt 1
  43:src/ConsumerProducer_C_API_test.cpp ****     while (!threadEnd) {
 145              		.loc 1 43 12
 146 00dc 97070000 		lw	a5,.LANCHOR0
 146      83A70700 
 147 00e4 639E0702 		bnez	a5,.L9
  44:src/ConsumerProducer_C_API_test.cpp ****         i++;
 148              		.loc 1 44 9
  44:src/ConsumerProducer_C_API_test.cpp ****         i++;
 149              		.loc 1 44 33 is_stmt 0
 150 00e8 83A50400 		lw	a1,0(s1)
  44:src/ConsumerProducer_C_API_test.cpp ****         i++;
 151              		.loc 1 44 26
 152 00ec 9B850503 		addiw	a1,a1,48
 153 00f0 03B58400 		ld	a0,8(s1)
 154 00f4 97000000 		call	_ZN6Buffer3putEi@plt
 154      E7800000 
 155              	.LVL19:
GAS LISTING /tmp/ccLu7FBN.s 			page 5


  45:src/ConsumerProducer_C_API_test.cpp **** 
 156              		.loc 1 45 9 is_stmt 1
  45:src/ConsumerProducer_C_API_test.cpp **** 
 157              		.loc 1 45 10 is_stmt 0
 158 00fc 1B071900 		addiw	a4,s2,1
 159 0100 1B090700 		sext.w	s2,a4
 160              	.LVL20:
  47:src/ConsumerProducer_C_API_test.cpp ****             thread_dispatch();
 161              		.loc 1 47 9 is_stmt 1
  47:src/ConsumerProducer_C_API_test.cpp ****             thread_dispatch();
 162              		.loc 1 47 29 is_stmt 0
 163 0104 83A60400 		lw	a3,0(s1)
  47:src/ConsumerProducer_C_API_test.cpp ****             thread_dispatch();
 164              		.loc 1 47 21
 165 0108 9B972600 		slliw	a5,a3,2
 166 010c BB87D700 		addw	a5,a5,a3
 167 0110 9B971700 		slliw	a5,a5,1
  47:src/ConsumerProducer_C_API_test.cpp ****             thread_dispatch();
 168              		.loc 1 47 15
 169 0114 BB67F702 		remw	a5,a4,a5
  47:src/ConsumerProducer_C_API_test.cpp ****             thread_dispatch();
 170              		.loc 1 47 9
 171 0118 E39207FC 		bnez	a5,.L8
 172 011c 6FF09FFB 		j	.L12
 173              	.LVL21:
 174              	.L9:
  49:src/ConsumerProducer_C_API_test.cpp ****         }
  50:src/ConsumerProducer_C_API_test.cpp ****     }
  51:src/ConsumerProducer_C_API_test.cpp **** 
  52:src/ConsumerProducer_C_API_test.cpp ****     sem_signal(data->wait);
 175              		.loc 1 52 5 is_stmt 1
 176              		.loc 1 52 15 is_stmt 0
 177 0120 03B50401 		ld	a0,16(s1)
 178 0124 97000000 		call	_Z10sem_signalP11MySemaphore@plt
 178      E7800000 
 179              	.LVL22:
  53:src/ConsumerProducer_C_API_test.cpp **** }
 180              		.loc 1 53 1
 181 012c 83308101 		ld	ra,24(sp)
 182              		.cfi_restore 1
 183 0130 03340101 		ld	s0,16(sp)
 184              		.cfi_restore 8
 185              		.cfi_def_cfa 2, 32
 186 0134 83348100 		ld	s1,8(sp)
 187              		.cfi_restore 9
 188              	.LVL23:
 189 0138 03390100 		ld	s2,0(sp)
 190              		.cfi_restore 18
 191              	.LVL24:
 192 013c 13010102 		addi	sp,sp,32
 193              		.cfi_def_cfa_offset 0
 194 0140 67800000 		jr	ra
 195              		.cfi_endproc
 196              	.LFE24:
 198              		.align	2
 200              	_ZL8consumerPv:
 201              	.LFB25:
GAS LISTING /tmp/ccLu7FBN.s 			page 6


  54:src/ConsumerProducer_C_API_test.cpp **** 
  55:src/ConsumerProducer_C_API_test.cpp **** static void consumer(void *arg) {
 202              		.loc 1 55 33 is_stmt 1
 203              		.cfi_startproc
 204              	.LVL25:
 205 0144 130101FD 		addi	sp,sp,-48
 206              		.cfi_def_cfa_offset 48
 207 0148 23341102 		sd	ra,40(sp)
 208 014c 23308102 		sd	s0,32(sp)
 209 0150 233C9100 		sd	s1,24(sp)
 210 0154 23382101 		sd	s2,16(sp)
 211 0158 23343101 		sd	s3,8(sp)
 212              		.cfi_offset 1, -8
 213              		.cfi_offset 8, -16
 214              		.cfi_offset 9, -24
 215              		.cfi_offset 18, -32
 216              		.cfi_offset 19, -40
 217 015c 13040103 		addi	s0,sp,48
 218              		.cfi_def_cfa 8, 0
 219 0160 13090500 		mv	s2,a0
  56:src/ConsumerProducer_C_API_test.cpp **** 
  57:src/ConsumerProducer_C_API_test.cpp ****     struct thread_data *data = (struct thread_data *) arg;
 220              		.loc 1 57 5
 221              	.LVL26:
  58:src/ConsumerProducer_C_API_test.cpp ****     //printInt((uint64) TCB::running);
  59:src/ConsumerProducer_C_API_test.cpp ****     int i = 0;
 222              		.loc 1 59 5
 223              		.loc 1 59 9 is_stmt 0
 224 0164 93090000 		li	s3,0
 225 0168 6F00C001 		j	.L14
 226              	.LVL27:
 227              	.L20:
 228              	.LBB2:
  60:src/ConsumerProducer_C_API_test.cpp ****     while (!threadEnd) {
  61:src/ConsumerProducer_C_API_test.cpp ****         int key = data->buffer->get();
  62:src/ConsumerProducer_C_API_test.cpp ****         i++;
  63:src/ConsumerProducer_C_API_test.cpp **** 
  64:src/ConsumerProducer_C_API_test.cpp ****         putc(key);
  65:src/ConsumerProducer_C_API_test.cpp **** 
  66:src/ConsumerProducer_C_API_test.cpp ****         if (i % (5 * data->id) == 0) {
  67:src/ConsumerProducer_C_API_test.cpp ****             thread_dispatch();
 229              		.loc 1 67 13 is_stmt 1
 230              		.loc 1 67 28 is_stmt 0
 231 016c 97000000 		call	_Z15thread_dispatchv@plt
 231      E7800000 
 232              	.LVL28:
 233 0174 6F000005 		j	.L16
 234              	.LVL29:
 235              	.L21:
  68:src/ConsumerProducer_C_API_test.cpp ****         }
  69:src/ConsumerProducer_C_API_test.cpp **** 
  70:src/ConsumerProducer_C_API_test.cpp ****         if (i % 80 == 0) {
  71:src/ConsumerProducer_C_API_test.cpp ****             putc('\n');
 236              		.loc 1 71 13 is_stmt 1
 237              		.loc 1 71 17 is_stmt 0
 238 0178 1305A000 		li	a0,10
 239 017c 97000000 		call	_Z4putcc@plt
GAS LISTING /tmp/ccLu7FBN.s 			page 7


 239      E7800000 
 240              	.LVL30:
 241              	.L14:
 242              	.LBE2:
  60:src/ConsumerProducer_C_API_test.cpp ****     while (!threadEnd) {
 243              		.loc 1 60 5 is_stmt 1
  60:src/ConsumerProducer_C_API_test.cpp ****     while (!threadEnd) {
 244              		.loc 1 60 12
 245 0184 97070000 		lw	a5,.LANCHOR0
 245      83A70700 
 246 018c 63900706 		bnez	a5,.L15
 247              	.LBB3:
  61:src/ConsumerProducer_C_API_test.cpp ****         i++;
 248              		.loc 1 61 9
  61:src/ConsumerProducer_C_API_test.cpp ****         i++;
 249              		.loc 1 61 36 is_stmt 0
 250 0190 03358900 		ld	a0,8(s2)
 251 0194 97000000 		call	_ZN6Buffer3getEv@plt
 251      E7800000 
 252              	.LVL31:
  62:src/ConsumerProducer_C_API_test.cpp **** 
 253              		.loc 1 62 9 is_stmt 1
  62:src/ConsumerProducer_C_API_test.cpp **** 
 254              		.loc 1 62 10 is_stmt 0
 255 019c 9B841900 		addiw	s1,s3,1
 256 01a0 9B890400 		sext.w	s3,s1
 257              	.LVL32:
  64:src/ConsumerProducer_C_API_test.cpp **** 
 258              		.loc 1 64 9 is_stmt 1
  64:src/ConsumerProducer_C_API_test.cpp **** 
 259              		.loc 1 64 13 is_stmt 0
 260 01a4 1375F50F 		andi	a0,a0,0xff
 261              	.LVL33:
 262 01a8 97000000 		call	_Z4putcc@plt
 262      E7800000 
 263              	.LVL34:
  66:src/ConsumerProducer_C_API_test.cpp ****             thread_dispatch();
 264              		.loc 1 66 9 is_stmt 1
  66:src/ConsumerProducer_C_API_test.cpp ****             thread_dispatch();
 265              		.loc 1 66 28 is_stmt 0
 266 01b0 03270900 		lw	a4,0(s2)
  66:src/ConsumerProducer_C_API_test.cpp ****             thread_dispatch();
 267              		.loc 1 66 20
 268 01b4 9B172700 		slliw	a5,a4,2
 269 01b8 BB87E700 		addw	a5,a5,a4
  66:src/ConsumerProducer_C_API_test.cpp ****             thread_dispatch();
 270              		.loc 1 66 15
 271 01bc BBE7F402 		remw	a5,s1,a5
  66:src/ConsumerProducer_C_API_test.cpp ****             thread_dispatch();
 272              		.loc 1 66 9
 273 01c0 E38607FA 		beqz	a5,.L20
 274              	.L16:
  70:src/ConsumerProducer_C_API_test.cpp ****             putc('\n');
 275              		.loc 1 70 9 is_stmt 1
  70:src/ConsumerProducer_C_API_test.cpp ****             putc('\n');
 276              		.loc 1 70 15 is_stmt 0
 277 01c4 93070005 		li	a5,80
GAS LISTING /tmp/ccLu7FBN.s 			page 8


 278 01c8 BBE4F402 		remw	s1,s1,a5
 279              	.LVL35:
  70:src/ConsumerProducer_C_API_test.cpp ****             putc('\n');
 280              		.loc 1 70 9
 281 01cc E39C04FA 		bnez	s1,.L14
 282 01d0 6FF09FFA 		j	.L21
 283              	.L22:
 284              	.LBE3:
 285              	.LBB4:
  72:src/ConsumerProducer_C_API_test.cpp ****         }
  73:src/ConsumerProducer_C_API_test.cpp ****     }
  74:src/ConsumerProducer_C_API_test.cpp **** 
  75:src/ConsumerProducer_C_API_test.cpp ****     while (data->buffer->getCnt() > 0) {
  76:src/ConsumerProducer_C_API_test.cpp ****         int key = data->buffer->get();
 286              		.loc 1 76 9 is_stmt 1
 287              		.loc 1 76 36 is_stmt 0
 288 01d4 03358900 		ld	a0,8(s2)
 289 01d8 97000000 		call	_ZN6Buffer3getEv@plt
 289      E7800000 
 290              	.LVL36:
  77:src/ConsumerProducer_C_API_test.cpp ****         putc(key);
 291              		.loc 1 77 9 is_stmt 1
 292              		.loc 1 77 13 is_stmt 0
 293 01e0 1375F50F 		andi	a0,a0,0xff
 294              	.LVL37:
 295 01e4 97000000 		call	_Z4putcc@plt
 295      E7800000 
 296              	.LVL38:
 297              	.L15:
 298              	.LBE4:
  75:src/ConsumerProducer_C_API_test.cpp ****         int key = data->buffer->get();
 299              		.loc 1 75 5 is_stmt 1
  75:src/ConsumerProducer_C_API_test.cpp ****         int key = data->buffer->get();
 300              		.loc 1 75 35
  75:src/ConsumerProducer_C_API_test.cpp ****         int key = data->buffer->get();
 301              		.loc 1 75 32 is_stmt 0
 302 01ec 03358900 		ld	a0,8(s2)
 303 01f0 97000000 		call	_ZN6Buffer6getCntEv@plt
 303      E7800000 
 304              	.LVL39:
  75:src/ConsumerProducer_C_API_test.cpp ****         int key = data->buffer->get();
 305              		.loc 1 75 35
 306 01f8 E34EA0FC 		bgtz	a0,.L22
  78:src/ConsumerProducer_C_API_test.cpp ****     }
  79:src/ConsumerProducer_C_API_test.cpp **** 
  80:src/ConsumerProducer_C_API_test.cpp ****     sem_signal(data->wait);
 307              		.loc 1 80 5 is_stmt 1
 308              		.loc 1 80 15 is_stmt 0
 309 01fc 03350901 		ld	a0,16(s2)
 310 0200 97000000 		call	_Z10sem_signalP11MySemaphore@plt
 310      E7800000 
 311              	.LVL40:
  81:src/ConsumerProducer_C_API_test.cpp **** }
 312              		.loc 1 81 1
 313 0208 83308102 		ld	ra,40(sp)
 314              		.cfi_restore 1
 315 020c 03340102 		ld	s0,32(sp)
GAS LISTING /tmp/ccLu7FBN.s 			page 9


 316              		.cfi_restore 8
 317              		.cfi_def_cfa 2, 48
 318 0210 83348101 		ld	s1,24(sp)
 319              		.cfi_restore 9
 320 0214 03390101 		ld	s2,16(sp)
 321              		.cfi_restore 18
 322              	.LVL41:
 323 0218 83398100 		ld	s3,8(sp)
 324              		.cfi_restore 19
 325              	.LVL42:
 326 021c 13010103 		addi	sp,sp,48
 327              		.cfi_def_cfa_offset 0
 328 0220 67800000 		jr	ra
 329              		.cfi_endproc
 330              	.LFE25:
 332              		.section	.rodata.str1.8,"aMS",@progbits,1
 333              		.align	3
 334              	.LC0:
 335 0000 556E6573 		.string	"Unesite broj proizvodjaca?\n"
 335      69746520 
 335      62726F6A 
 335      2070726F 
 335      697A766F 
 336 001c 00000000 		.align	3
 337              	.LC1:
 338 0020 556E6573 		.string	"Unesite velicinu bafera?\n"
 338      69746520 
 338      76656C69 
 338      63696E75 
 338      20626166 
 339 003a 00000000 		.align	3
 339      0000
 340              	.LC2:
 341 0040 42726F6A 		.string	"Broj proizvodjaca "
 341      2070726F 
 341      697A766F 
 341      646A6163 
 341      612000
 342 0053 00000000 		.align	3
 342      00
 343              	.LC3:
 344 0058 20692076 		.string	" i velicina bafera "
 344      656C6963 
 344      696E6120 
 344      62616665 
 344      72612000 
 345 006c 00000000 		.align	3
 346              	.LC4:
 347 0070 2E0A00   		.string	".\n"
 348 0073 00000000 		.align	3
 348      00
 349              	.LC5:
 350 0078 42726F6A 		.string	"Broj proizvodjaca ne sme biti manji od velicine bafera!\n"
 350      2070726F 
 350      697A766F 
 350      646A6163 
 350      61206E65 
GAS LISTING /tmp/ccLu7FBN.s 			page 10


 351 00b1 00000000 		.align	3
 351      000000
 352              	.LC6:
 353 00b8 42726F6A 		.string	"Broj proizvodjaca mora biti veci od nula!\n"
 353      2070726F 
 353      697A766F 
 353      646A6163 
 353      61206D6F 
 354              		.text
 355              		.align	2
 356              		.globl	_Z22producerConsumer_C_APIv
 358              	_Z22producerConsumer_C_APIv:
 359              	.LFB26:
  82:src/ConsumerProducer_C_API_test.cpp **** 
  83:src/ConsumerProducer_C_API_test.cpp **** void producerConsumer_C_API() {
 360              		.loc 1 83 31 is_stmt 1
 361              		.cfi_startproc
 362              		.cfi_personality 0x9b,DW.ref.__gxx_personality_v0
 363              		.cfi_lsda 0x1b,.LLSDA26
 364 0224 130101F9 		addi	sp,sp,-112
 365              		.cfi_def_cfa_offset 112
 366 0228 23341106 		sd	ra,104(sp)
 367 022c 23308106 		sd	s0,96(sp)
 368 0230 233C9104 		sd	s1,88(sp)
 369 0234 23382105 		sd	s2,80(sp)
 370 0238 23343105 		sd	s3,72(sp)
 371 023c 23304105 		sd	s4,64(sp)
 372 0240 233C5103 		sd	s5,56(sp)
 373 0244 23386103 		sd	s6,48(sp)
 374              		.cfi_offset 1, -8
 375              		.cfi_offset 8, -16
 376              		.cfi_offset 9, -24
 377              		.cfi_offset 18, -32
 378              		.cfi_offset 19, -40
 379              		.cfi_offset 20, -48
 380              		.cfi_offset 21, -56
 381              		.cfi_offset 22, -64
 382 0248 13040107 		addi	s0,sp,112
 383              		.cfi_def_cfa 8, 0
  84:src/ConsumerProducer_C_API_test.cpp ****     char input[30];
  85:src/ConsumerProducer_C_API_test.cpp ****     int n, threadNum;
  86:src/ConsumerProducer_C_API_test.cpp **** 
  87:src/ConsumerProducer_C_API_test.cpp ****     printString("Unesite broj proizvodjaca?\n");
  88:src/ConsumerProducer_C_API_test.cpp ****     getString(input, 30);
  89:src/ConsumerProducer_C_API_test.cpp ****     threadNum = stringToInt(input);
  90:src/ConsumerProducer_C_API_test.cpp **** 
  91:src/ConsumerProducer_C_API_test.cpp ****     printString("Unesite velicinu bafera?\n");
  92:src/ConsumerProducer_C_API_test.cpp ****     getString(input, 30);
  93:src/ConsumerProducer_C_API_test.cpp ****     n = stringToInt(input);
  94:src/ConsumerProducer_C_API_test.cpp **** 
  95:src/ConsumerProducer_C_API_test.cpp ****     printString("Broj proizvodjaca "); printInt(threadNum);
  96:src/ConsumerProducer_C_API_test.cpp ****     printString(" i velicina bafera "); printInt(n);
  97:src/ConsumerProducer_C_API_test.cpp ****     printString(".\n");
  98:src/ConsumerProducer_C_API_test.cpp **** 
  99:src/ConsumerProducer_C_API_test.cpp ****     if(threadNum > n) {
 100:src/ConsumerProducer_C_API_test.cpp ****         printString("Broj proizvodjaca ne sme biti manji od velicine bafera!\n");
 101:src/ConsumerProducer_C_API_test.cpp ****         return;
GAS LISTING /tmp/ccLu7FBN.s 			page 11


 102:src/ConsumerProducer_C_API_test.cpp ****     } else if (threadNum < 1) {
 103:src/ConsumerProducer_C_API_test.cpp ****         printString("Broj proizvodjaca mora biti veci od nula!\n");
 104:src/ConsumerProducer_C_API_test.cpp ****         return;
 105:src/ConsumerProducer_C_API_test.cpp ****     }
 106:src/ConsumerProducer_C_API_test.cpp **** 
 107:src/ConsumerProducer_C_API_test.cpp ****     Buffer *buffer = new Buffer(n);
 108:src/ConsumerProducer_C_API_test.cpp **** 
 109:src/ConsumerProducer_C_API_test.cpp ****     sem_open(&waitForAll, 0);
 110:src/ConsumerProducer_C_API_test.cpp **** 
 111:src/ConsumerProducer_C_API_test.cpp ****     thread_t threads[threadNum];
 112:src/ConsumerProducer_C_API_test.cpp ****     thread_t consumerThread;
 113:src/ConsumerProducer_C_API_test.cpp **** 
 114:src/ConsumerProducer_C_API_test.cpp ****     struct thread_data data[threadNum + 1];
 115:src/ConsumerProducer_C_API_test.cpp **** 
 116:src/ConsumerProducer_C_API_test.cpp ****     data[threadNum].id = threadNum;
 117:src/ConsumerProducer_C_API_test.cpp ****     data[threadNum].buffer = buffer;
 118:src/ConsumerProducer_C_API_test.cpp ****     data[threadNum].wait = waitForAll;
 119:src/ConsumerProducer_C_API_test.cpp ****     thread_create(&consumerThread, consumer, data + threadNum);
 120:src/ConsumerProducer_C_API_test.cpp **** 
 121:src/ConsumerProducer_C_API_test.cpp ****     for (int i = 0; i < threadNum; i++) {
 122:src/ConsumerProducer_C_API_test.cpp ****         data[i].id = i;
 123:src/ConsumerProducer_C_API_test.cpp ****         data[i].buffer = buffer;
 124:src/ConsumerProducer_C_API_test.cpp ****         data[i].wait = waitForAll;
 125:src/ConsumerProducer_C_API_test.cpp **** 
 126:src/ConsumerProducer_C_API_test.cpp ****         thread_create(threads + i,
 127:src/ConsumerProducer_C_API_test.cpp ****                       i > 0 ? producer : producerKeyboard,
 128:src/ConsumerProducer_C_API_test.cpp ****                       data + i);
 129:src/ConsumerProducer_C_API_test.cpp **** 
 130:src/ConsumerProducer_C_API_test.cpp ****         //printInt((uint64) (threads[i]->body), 16);
 131:src/ConsumerProducer_C_API_test.cpp ****         //printString("\n");
 132:src/ConsumerProducer_C_API_test.cpp ****     }
 133:src/ConsumerProducer_C_API_test.cpp **** 
 134:src/ConsumerProducer_C_API_test.cpp **** 
 135:src/ConsumerProducer_C_API_test.cpp **** 
 136:src/ConsumerProducer_C_API_test.cpp ****     thread_dispatch();
 137:src/ConsumerProducer_C_API_test.cpp **** 
 138:src/ConsumerProducer_C_API_test.cpp ****     for (int i = 0; i <= threadNum; i++) {
 139:src/ConsumerProducer_C_API_test.cpp ****         sem_wait(waitForAll);
 140:src/ConsumerProducer_C_API_test.cpp ****     }
 141:src/ConsumerProducer_C_API_test.cpp **** 
 142:src/ConsumerProducer_C_API_test.cpp ****     sem_close(waitForAll);
 143:src/ConsumerProducer_C_API_test.cpp **** 
 144:src/ConsumerProducer_C_API_test.cpp ****     delete buffer;
 384              		.loc 1 144 18 is_stmt 0
 385 024c 130B0100 		mv	s6,sp
  84:src/ConsumerProducer_C_API_test.cpp ****     char input[30];
 386              		.loc 1 84 5 is_stmt 1
  85:src/ConsumerProducer_C_API_test.cpp **** 
 387              		.loc 1 85 5
  87:src/ConsumerProducer_C_API_test.cpp ****     getString(input, 30);
 388              		.loc 1 87 5
  87:src/ConsumerProducer_C_API_test.cpp ****     getString(input, 30);
 389              		.loc 1 87 16 is_stmt 0
 390 0250 17050000 		lla	a0,.LC0
 390      13050500 
 391              	.LEHB0:
 392 0258 97000000 		call	_Z11printStringPKc@plt
GAS LISTING /tmp/ccLu7FBN.s 			page 12


 392      E7800000 
 393              	.LVL43:
  88:src/ConsumerProducer_C_API_test.cpp ****     threadNum = stringToInt(input);
 394              		.loc 1 88 5 is_stmt 1
  88:src/ConsumerProducer_C_API_test.cpp ****     threadNum = stringToInt(input);
 395              		.loc 1 88 14 is_stmt 0
 396 0260 9305E001 		li	a1,30
 397 0264 930404FA 		addi	s1,s0,-96
 398 0268 13850400 		mv	a0,s1
 399 026c 97000000 		call	_Z9getStringPci@plt
 399      E7800000 
 400              	.LVL44:
  89:src/ConsumerProducer_C_API_test.cpp **** 
 401              		.loc 1 89 5 is_stmt 1
  89:src/ConsumerProducer_C_API_test.cpp **** 
 402              		.loc 1 89 28 is_stmt 0
 403 0274 13850400 		mv	a0,s1
 404 0278 97000000 		call	_Z11stringToIntPKc@plt
 404      E7800000 
 405              	.LVL45:
 406 0280 13090500 		mv	s2,a0
 407              	.LVL46:
  91:src/ConsumerProducer_C_API_test.cpp ****     getString(input, 30);
 408              		.loc 1 91 5 is_stmt 1
  91:src/ConsumerProducer_C_API_test.cpp ****     getString(input, 30);
 409              		.loc 1 91 16 is_stmt 0
 410 0284 17050000 		lla	a0,.LC1
 410      13050500 
 411 028c 97000000 		call	_Z11printStringPKc@plt
 411      E7800000 
 412              	.LVL47:
  92:src/ConsumerProducer_C_API_test.cpp ****     n = stringToInt(input);
 413              		.loc 1 92 5 is_stmt 1
  92:src/ConsumerProducer_C_API_test.cpp ****     n = stringToInt(input);
 414              		.loc 1 92 14 is_stmt 0
 415 0294 9305E001 		li	a1,30
 416 0298 13850400 		mv	a0,s1
 417 029c 97000000 		call	_Z9getStringPci@plt
 417      E7800000 
 418              	.LVL48:
  93:src/ConsumerProducer_C_API_test.cpp **** 
 419              		.loc 1 93 5 is_stmt 1
  93:src/ConsumerProducer_C_API_test.cpp **** 
 420              		.loc 1 93 20 is_stmt 0
 421 02a4 13850400 		mv	a0,s1
 422 02a8 97000000 		call	_Z11stringToIntPKc@plt
 422      E7800000 
 423              	.LVL49:
 424 02b0 93040500 		mv	s1,a0
 425              	.LVL50:
  95:src/ConsumerProducer_C_API_test.cpp ****     printString(" i velicina bafera "); printInt(n);
 426              		.loc 1 95 5 is_stmt 1
  95:src/ConsumerProducer_C_API_test.cpp ****     printString(" i velicina bafera "); printInt(n);
 427              		.loc 1 95 16 is_stmt 0
 428 02b4 17050000 		lla	a0,.LC2
 428      13050500 
 429 02bc 97000000 		call	_Z11printStringPKc@plt
GAS LISTING /tmp/ccLu7FBN.s 			page 13


 429      E7800000 
 430              	.LVL51:
  95:src/ConsumerProducer_C_API_test.cpp ****     printString(" i velicina bafera "); printInt(n);
 431              		.loc 1 95 40 is_stmt 1
  95:src/ConsumerProducer_C_API_test.cpp ****     printString(" i velicina bafera "); printInt(n);
 432              		.loc 1 95 48 is_stmt 0
 433 02c4 13060000 		li	a2,0
 434 02c8 9305A000 		li	a1,10
 435 02cc 13050900 		mv	a0,s2
 436 02d0 97000000 		call	_Z8printIntiii@plt
 436      E7800000 
 437              	.LVL52:
  96:src/ConsumerProducer_C_API_test.cpp ****     printString(".\n");
 438              		.loc 1 96 5 is_stmt 1
  96:src/ConsumerProducer_C_API_test.cpp ****     printString(".\n");
 439              		.loc 1 96 16 is_stmt 0
 440 02d8 17050000 		lla	a0,.LC3
 440      13050500 
 441 02e0 97000000 		call	_Z11printStringPKc@plt
 441      E7800000 
 442              	.LVL53:
  96:src/ConsumerProducer_C_API_test.cpp ****     printString(".\n");
 443              		.loc 1 96 41 is_stmt 1
  96:src/ConsumerProducer_C_API_test.cpp ****     printString(".\n");
 444              		.loc 1 96 49 is_stmt 0
 445 02e8 13060000 		li	a2,0
 446 02ec 9305A000 		li	a1,10
 447 02f0 13850400 		mv	a0,s1
 448 02f4 97000000 		call	_Z8printIntiii@plt
 448      E7800000 
 449              	.LVL54:
  97:src/ConsumerProducer_C_API_test.cpp **** 
 450              		.loc 1 97 5 is_stmt 1
  97:src/ConsumerProducer_C_API_test.cpp **** 
 451              		.loc 1 97 16 is_stmt 0
 452 02fc 17050000 		lla	a0,.LC4
 452      13050500 
 453 0304 97000000 		call	_Z11printStringPKc@plt
 453      E7800000 
 454              	.LVL55:
  99:src/ConsumerProducer_C_API_test.cpp ****         printString("Broj proizvodjaca ne sme biti manji od velicine bafera!\n");
 455              		.loc 1 99 5 is_stmt 1
 456 030c 63C42403 		bgt	s2,s1,.L38
 102:src/ConsumerProducer_C_API_test.cpp ****         printString("Broj proizvodjaca mora biti veci od nula!\n");
 457              		.loc 1 102 12
 458 0310 635C2003 		blez	s2,.L39
 107:src/ConsumerProducer_C_API_test.cpp **** 
 459              		.loc 1 107 5
 107:src/ConsumerProducer_C_API_test.cpp **** 
 460              		.loc 1 107 34 is_stmt 0
 461 0314 13058003 		li	a0,56
 462 0318 97000000 		call	_Znwm@plt
 462      E7800000 
 463              	.LVL56:
 464              	.LEHE0:
 465 0320 130A0500 		mv	s4,a0
 466 0324 93850400 		mv	a1,s1
GAS LISTING /tmp/ccLu7FBN.s 			page 14


 467              	.LEHB1:
 468 0328 97000000 		call	_ZN6BufferC1Ei@plt
 468      E7800000 
 469              	.LVL57:
 470              	.LEHE1:
 471 0330 6F000003 		j	.L40
 472              	.L38:
 100:src/ConsumerProducer_C_API_test.cpp ****         return;
 473              		.loc 1 100 9 is_stmt 1
 100:src/ConsumerProducer_C_API_test.cpp ****         return;
 474              		.loc 1 100 20 is_stmt 0
 475 0334 17050000 		lla	a0,.LC5
 475      13050500 
 476              	.LEHB2:
 477 033c 97000000 		call	_Z11printStringPKc@plt
 477      E7800000 
 478              	.LVL58:
 101:src/ConsumerProducer_C_API_test.cpp ****     } else if (threadNum < 1) {
 479              		.loc 1 101 9 is_stmt 1
 480 0344 6F004001 		j	.L25
 481              	.L39:
 103:src/ConsumerProducer_C_API_test.cpp ****         return;
 482              		.loc 1 103 9
 103:src/ConsumerProducer_C_API_test.cpp ****         return;
 483              		.loc 1 103 20 is_stmt 0
 484 0348 17050000 		lla	a0,.LC6
 484      13050500 
 485 0350 97000000 		call	_Z11printStringPKc@plt
 485      E7800000 
 486              	.LVL59:
 104:src/ConsumerProducer_C_API_test.cpp ****     }
 487              		.loc 1 104 9 is_stmt 1
 488              	.L25:
 489 0358 13010B00 		mv	sp,s6
 490 035c 6F000015 		j	.L23
 491              	.L40:
 492              	.LVL60:
 109:src/ConsumerProducer_C_API_test.cpp **** 
 493              		.loc 1 109 5 discriminator 3
 109:src/ConsumerProducer_C_API_test.cpp **** 
 494              		.loc 1 109 13 is_stmt 0 discriminator 3
 495 0360 93050000 		li	a1,0
 496 0364 17050000 		lla	a0,.LANCHOR0+8
 496      13050500 
 497 036c 97000000 		call	_Z8sem_openPP11MySemaphorej@plt
 497      E7800000 
 498              	.LVL61:
 111:src/ConsumerProducer_C_API_test.cpp ****     thread_t consumerThread;
 499              		.loc 1 111 5 is_stmt 1 discriminator 3
 111:src/ConsumerProducer_C_API_test.cpp ****     thread_t consumerThread;
 500              		.loc 1 111 14 is_stmt 0 discriminator 3
 501 0374 93173900 		slli	a5,s2,3
 502 0378 9387F700 		addi	a5,a5,15
 503 037c 93F707FF 		andi	a5,a5,-16
 504 0380 3301F140 		sub	sp,sp,a5
 505 0384 930A0100 		mv	s5,sp
 506              	.LVL62:
GAS LISTING /tmp/ccLu7FBN.s 			page 15


 112:src/ConsumerProducer_C_API_test.cpp **** 
 507              		.loc 1 112 5 is_stmt 1 discriminator 3
 114:src/ConsumerProducer_C_API_test.cpp **** 
 508              		.loc 1 114 5 discriminator 3
 114:src/ConsumerProducer_C_API_test.cpp **** 
 509              		.loc 1 114 39 is_stmt 0 discriminator 3
 510 0388 1B071900 		addiw	a4,s2,1
 511              	.LVL63:
 114:src/ConsumerProducer_C_API_test.cpp **** 
 512              		.loc 1 114 24 discriminator 3
 513 038c 93171700 		slli	a5,a4,1
 514 0390 B387E700 		add	a5,a5,a4
 515 0394 93973700 		slli	a5,a5,3
 516 0398 9387F700 		addi	a5,a5,15
 517 039c 93F707FF 		andi	a5,a5,-16
 518 03a0 3301F140 		sub	sp,sp,a5
 519              	.LVL64:
 520 03a4 93090100 		mv	s3,sp
 521              	.LVL65:
 116:src/ConsumerProducer_C_API_test.cpp ****     data[threadNum].buffer = buffer;
 522              		.loc 1 116 5 is_stmt 1 discriminator 3
 116:src/ConsumerProducer_C_API_test.cpp ****     data[threadNum].buffer = buffer;
 523              		.loc 1 116 24 is_stmt 0 discriminator 3
 524 03a8 13161900 		slli	a2,s2,1
 525 03ac B3072601 		add	a5,a2,s2
 526 03b0 93973700 		slli	a5,a5,3
 527 03b4 B387F900 		add	a5,s3,a5
 528 03b8 23A02701 		sw	s2,0(a5)
 117:src/ConsumerProducer_C_API_test.cpp ****     data[threadNum].wait = waitForAll;
 529              		.loc 1 117 5 is_stmt 1 discriminator 3
 117:src/ConsumerProducer_C_API_test.cpp ****     data[threadNum].wait = waitForAll;
 530              		.loc 1 117 28 is_stmt 0 discriminator 3
 531 03bc 23B44701 		sd	s4,8(a5)
 118:src/ConsumerProducer_C_API_test.cpp ****     thread_create(&consumerThread, consumer, data + threadNum);
 532              		.loc 1 118 5 is_stmt 1 discriminator 3
 118:src/ConsumerProducer_C_API_test.cpp ****     thread_create(&consumerThread, consumer, data + threadNum);
 533              		.loc 1 118 26 is_stmt 0 discriminator 3
 534 03c0 17070000 		ld	a4,.LANCHOR0+8
 534      03370700 
 535 03c8 23B8E700 		sd	a4,16(a5)
 119:src/ConsumerProducer_C_API_test.cpp **** 
 536              		.loc 1 119 5 is_stmt 1 discriminator 3
 119:src/ConsumerProducer_C_API_test.cpp **** 
 537              		.loc 1 119 18 is_stmt 0 discriminator 3
 538 03cc 13860700 		mv	a2,a5
 539 03d0 97050000 		lla	a1,_ZL8consumerPv
 539      93850500 
 540 03d8 130584F9 		addi	a0,s0,-104
 541 03dc 97000000 		call	_Z13thread_createPP3TCBPFvPvES2_@plt
 541      E7800000 
 542              	.LVL66:
 543              	.LBB5:
 121:src/ConsumerProducer_C_API_test.cpp ****         data[i].id = i;
 544              		.loc 1 121 14 discriminator 3
 545 03e4 93040000 		li	s1,0
 546              	.LVL67:
 547 03e8 6F008002 		j	.L29
GAS LISTING /tmp/ccLu7FBN.s 			page 16


 548              	.LVL68:
 549              	.L35:
 126:src/ConsumerProducer_C_API_test.cpp ****                       i > 0 ? producer : producerKeyboard,
 550              		.loc 1 126 22
 551 03ec 97050000 		lla	a1,_ZL16producerKeyboardPv
 551      93850500 
 552              	.L28:
 128:src/ConsumerProducer_C_API_test.cpp **** 
 553              		.loc 1 128 28 discriminator 4
 554 03f4 13961700 		slli	a2,a5,1
 555 03f8 3306F600 		add	a2,a2,a5
 556 03fc 13163600 		slli	a2,a2,3
 126:src/ConsumerProducer_C_API_test.cpp ****                       i > 0 ? producer : producerKeyboard,
 557              		.loc 1 126 22 discriminator 4
 558 0400 3386C900 		add	a2,s3,a2
 559 0404 97000000 		call	_Z13thread_createPP3TCBPFvPvES2_@plt
 559      E7800000 
 560              	.LVL69:
 121:src/ConsumerProducer_C_API_test.cpp ****         data[i].id = i;
 561              		.loc 1 121 5 is_stmt 1 discriminator 4
 562 040c 9B841400 		addiw	s1,s1,1
 563              	.LVL70:
 564              	.L29:
 121:src/ConsumerProducer_C_API_test.cpp ****         data[i].id = i;
 565              		.loc 1 121 23 discriminator 1
 566 0410 63D22405 		bge	s1,s2,.L27
 122:src/ConsumerProducer_C_API_test.cpp ****         data[i].buffer = buffer;
 567              		.loc 1 122 9
 122:src/ConsumerProducer_C_API_test.cpp ****         data[i].buffer = buffer;
 568              		.loc 1 122 20 is_stmt 0
 569 0414 93971400 		slli	a5,s1,1
 570 0418 B3879700 		add	a5,a5,s1
 571 041c 93973700 		slli	a5,a5,3
 572 0420 B387F900 		add	a5,s3,a5
 573 0424 23A09700 		sw	s1,0(a5)
 123:src/ConsumerProducer_C_API_test.cpp ****         data[i].wait = waitForAll;
 574              		.loc 1 123 9 is_stmt 1
 123:src/ConsumerProducer_C_API_test.cpp ****         data[i].wait = waitForAll;
 575              		.loc 1 123 24 is_stmt 0
 576 0428 23B44701 		sd	s4,8(a5)
 124:src/ConsumerProducer_C_API_test.cpp **** 
 577              		.loc 1 124 9 is_stmt 1
 124:src/ConsumerProducer_C_API_test.cpp **** 
 578              		.loc 1 124 22 is_stmt 0
 579 042c 17070000 		ld	a4,.LANCHOR0+8
 579      03370700 
 580 0434 23B8E700 		sd	a4,16(a5)
 126:src/ConsumerProducer_C_API_test.cpp ****                       i > 0 ? producer : producerKeyboard,
 581              		.loc 1 126 9 is_stmt 1
 126:src/ConsumerProducer_C_API_test.cpp ****                       i > 0 ? producer : producerKeyboard,
 582              		.loc 1 126 33 is_stmt 0
 583 0438 93870400 		mv	a5,s1
 126:src/ConsumerProducer_C_API_test.cpp ****                       i > 0 ? producer : producerKeyboard,
 584              		.loc 1 126 31
 585 043c 13953400 		slli	a0,s1,3
 126:src/ConsumerProducer_C_API_test.cpp ****                       i > 0 ? producer : producerKeyboard,
 586              		.loc 1 126 22
GAS LISTING /tmp/ccLu7FBN.s 			page 17


 587 0440 3385AA00 		add	a0,s5,a0
 588 0444 E35490FA 		blez	s1,.L35
 589 0448 97050000 		lla	a1,_ZL8producerPv
 589      93850500 
 590 0450 6FF05FFA 		j	.L28
 591              	.L27:
 592              	.LBE5:
 136:src/ConsumerProducer_C_API_test.cpp **** 
 593              		.loc 1 136 5 is_stmt 1
 136:src/ConsumerProducer_C_API_test.cpp **** 
 594              		.loc 1 136 20 is_stmt 0
 595 0454 97000000 		call	_Z15thread_dispatchv@plt
 595      E7800000 
 596              	.LVL71:
 597              	.LBB6:
 138:src/ConsumerProducer_C_API_test.cpp ****         sem_wait(waitForAll);
 598              		.loc 1 138 14
 599 045c 93040000 		li	s1,0
 600              	.LVL72:
 601              	.L31:
 138:src/ConsumerProducer_C_API_test.cpp ****         sem_wait(waitForAll);
 602              		.loc 1 138 23 is_stmt 1 discriminator 1
 603 0460 634E9900 		bgt	s1,s2,.L30
 139:src/ConsumerProducer_C_API_test.cpp ****     }
 604              		.loc 1 139 9
 139:src/ConsumerProducer_C_API_test.cpp ****     }
 605              		.loc 1 139 17 is_stmt 0
 606 0464 17050000 		ld	a0,.LANCHOR0+8
 606      03350500 
 607 046c 97000000 		call	_Z8sem_waitP11MySemaphore@plt
 607      E7800000 
 608              	.LVL73:
 138:src/ConsumerProducer_C_API_test.cpp ****         sem_wait(waitForAll);
 609              		.loc 1 138 5 is_stmt 1
 610 0474 9B841400 		addiw	s1,s1,1
 611              	.LVL74:
 612 0478 6FF09FFE 		j	.L31
 613              	.LVL75:
 614              	.L30:
 615              	.LBE6:
 142:src/ConsumerProducer_C_API_test.cpp **** 
 616              		.loc 1 142 5
 142:src/ConsumerProducer_C_API_test.cpp **** 
 617              		.loc 1 142 14 is_stmt 0
 618 047c 17050000 		ld	a0,.LANCHOR0+8
 618      03350500 
 619 0484 97000000 		call	_Z9sem_closeP11MySemaphore@plt
 619      E7800000 
 620              	.LVL76:
 621              		.loc 1 144 5 is_stmt 1
 622              		.loc 1 144 18 is_stmt 0
 623 048c 630E0A00 		beqz	s4,.L32
 624              		.loc 1 144 12 discriminator 1
 625 0490 13050A00 		mv	a0,s4
 626 0494 97000000 		call	_ZN6BufferD1Ev@plt
 626      E7800000 
 627              	.LVL77:
GAS LISTING /tmp/ccLu7FBN.s 			page 18


 628 049c 13050A00 		mv	a0,s4
 629 04a0 97000000 		call	_ZdlPv@plt
 629      E7800000 
 630              	.LVL78:
 631              	.LEHE2:
 632              	.L32:
 633 04a8 13010B00 		mv	sp,s6
 634              	.LVL79:
 635              	.L23:
 145:src/ConsumerProducer_C_API_test.cpp **** 
 146:src/ConsumerProducer_C_API_test.cpp **** }
 636              		.loc 1 146 1
 637 04ac 130104F9 		addi	sp,s0,-112
 638              		.cfi_remember_state
 639              		.cfi_def_cfa 2, 112
 640 04b0 83308106 		ld	ra,104(sp)
 641              		.cfi_restore 1
 642 04b4 03340106 		ld	s0,96(sp)
 643              		.cfi_restore 8
 644 04b8 83348105 		ld	s1,88(sp)
 645              		.cfi_restore 9
 646 04bc 03390105 		ld	s2,80(sp)
 647              		.cfi_restore 18
 648              	.LVL80:
 649 04c0 83398104 		ld	s3,72(sp)
 650              		.cfi_restore 19
 651 04c4 033A0104 		ld	s4,64(sp)
 652              		.cfi_restore 20
 653 04c8 833A8103 		ld	s5,56(sp)
 654              		.cfi_restore 21
 655 04cc 033B0103 		ld	s6,48(sp)
 656              		.cfi_restore 22
 657 04d0 13010107 		addi	sp,sp,112
 658              		.cfi_def_cfa_offset 0
 659 04d4 67800000 		jr	ra
 660              	.LVL81:
 661              	.L36:
 662              		.cfi_restore_state
 663 04d8 93040500 		mv	s1,a0
 664              	.LVL82:
 107:src/ConsumerProducer_C_API_test.cpp **** 
 665              		.loc 1 107 34
 666 04dc 13050A00 		mv	a0,s4
 667 04e0 97000000 		call	_ZdlPv@plt
 667      E7800000 
 668              	.LVL83:
 669 04e8 13850400 		mv	a0,s1
 670              	.LEHB3:
 671 04ec 97000000 		call	_Unwind_Resume@plt
 671      E7800000 
 672              	.LVL84:
 673              	.LEHE3:
 674              		.cfi_endproc
 675              	.LFE26:
 676              		.globl	__gxx_personality_v0
 677              		.section	.gcc_except_table,"a",@progbits
 678              	.LLSDA26:
GAS LISTING /tmp/ccLu7FBN.s 			page 19


 679 0000 FF       		.byte	0xff
 680 0001 FF       		.byte	0xff
 681 0002 03       		.byte	0x3
 682 0003 34       		.byte	0x34
 683 0004 00000000 		.4byte	.LEHB0-.LFB26
 684 0008 00000000 		.4byte	.LEHE0-.LEHB0
 685 000c 00000000 		.4byte	0
 686 0010 00       		.byte	0
 687 0011 00000000 		.4byte	.LEHB1-.LFB26
 688 0015 00000000 		.4byte	.LEHE1-.LEHB1
 689 0019 00000000 		.4byte	.L36-.LFB26
 690 001d 00       		.byte	0
 691 001e 00000000 		.4byte	.LEHB2-.LFB26
 692 0022 00000000 		.4byte	.LEHE2-.LEHB2
 693 0026 00000000 		.4byte	0
 694 002a 00       		.byte	0
 695 002b 00000000 		.4byte	.LEHB3-.LFB26
 696 002f 00000000 		.4byte	.LEHE3-.LEHB3
 697 0033 00000000 		.4byte	0
 698 0037 00       		.byte	0
 699              		.text
 701              		.bss
 702              		.align	3
 703              		.set	.LANCHOR0,. + 0
 706              	_ZL9threadEnd:
 707 0000 00000000 		.zero	4
 708 0004 00000000 		.zero	4
 711              	_ZL10waitForAll:
 712 0008 00000000 		.zero	8
 712      00000000 
 713              		.text
 714              	.Letext0:
 715              		.file 2 "src/../h/../lib/hw.h"
 716              		.file 3 "src/../h/syscall_c.hpp"
 717              		.file 4 "src/../h/tcb.hpp"
 718              		.file 5 "src/../h/../h/MySemaphore.hpp"
 719              		.file 6 "src/../h/buffer.hpp"
 720              		.file 7 "src/../h/list.hpp"
 721              		.file 8 "src/../h/printing.hpp"
 722              		.file 9 "src/../h/syscall_cpp.hpp"
 4172              		.align	3
 4175              	DW.ref.__gxx_personality_v0:
 4176 0000 00000000 		.dword	__gxx_personality_v0
 4176      00000000 
 4177              		.ident	"GCC: (Ubuntu 9.4.0-1ubuntu1~20.04) 9.4.0"
 4178              		.section	.note.GNU-stack,"",@progbits
GAS LISTING /tmp/ccLu7FBN.s 			page 20

