GAS LISTING /tmp/ccRokYmj.s 			page 1


   1              		.file	"MySemaphore.cpp"
   2              		.option pic
   3              		.option norelax
   4              		.text
   5              	.Ltext0:
   6              		.align	2
   7              		.globl	_ZN11MySemaphore8sem_waitEPS_
   9              	_ZN11MySemaphore8sem_waitEPS_:
  10              	.LFB25:
  11              		.file 1 "src/MySemaphore.cpp"
   1:src/MySemaphore.cpp **** //
   2:src/MySemaphore.cpp **** // Created by os on 6/25/24.
   3:src/MySemaphore.cpp **** //
   4:src/MySemaphore.cpp **** 
   5:src/MySemaphore.cpp **** #include "../h/MySemaphore.hpp"
   6:src/MySemaphore.cpp **** #include "../h/tcb.hpp"
   7:src/MySemaphore.cpp **** #include "../h/printing.hpp"
   8:src/MySemaphore.cpp **** 
   9:src/MySemaphore.cpp **** int MySemaphore::sem_open(sem_t *handle, unsigned init)
  10:src/MySemaphore.cpp **** {
  11:src/MySemaphore.cpp ****     *handle = new MySemaphore(init);
  12:src/MySemaphore.cpp **** 
  13:src/MySemaphore.cpp ****     if(*handle == nullptr)
  14:src/MySemaphore.cpp ****     {
  15:src/MySemaphore.cpp ****         return -1;
  16:src/MySemaphore.cpp ****     }
  17:src/MySemaphore.cpp **** 
  18:src/MySemaphore.cpp ****     return 0;
  19:src/MySemaphore.cpp **** }
  20:src/MySemaphore.cpp **** 
  21:src/MySemaphore.cpp **** int MySemaphore::sem_close(sem_t handle)
  22:src/MySemaphore.cpp **** {
  23:src/MySemaphore.cpp ****     if(handle == nullptr)
  24:src/MySemaphore.cpp ****     {
  25:src/MySemaphore.cpp ****         return -2;
  26:src/MySemaphore.cpp ****     }
  27:src/MySemaphore.cpp **** 
  28:src/MySemaphore.cpp ****     for(unsigned int i = 0; i < handle->semaphoreQueue.numberOfElements(); i++)
  29:src/MySemaphore.cpp ****     {
  30:src/MySemaphore.cpp ****         thread_t tcb = handle->semaphoreQueue.removeFirst();
  31:src/MySemaphore.cpp ****         Scheduler::getInstance().put(tcb);
  32:src/MySemaphore.cpp ****         tcb->semClosed = true;
  33:src/MySemaphore.cpp ****     }
  34:src/MySemaphore.cpp **** 
  35:src/MySemaphore.cpp ****     delete handle;
  36:src/MySemaphore.cpp **** 
  37:src/MySemaphore.cpp ****     return 0;
  38:src/MySemaphore.cpp **** }
  39:src/MySemaphore.cpp **** 
  40:src/MySemaphore.cpp **** int MySemaphore::sem_wait(sem_t id)
  41:src/MySemaphore.cpp **** {
  12              		.loc 1 41 1
  13              		.cfi_startproc
  14              	.LVL0:
  42:src/MySemaphore.cpp ****     if(id == nullptr)
  15              		.loc 1 42 5
  16 0000 6306050E 		beqz	a0,.L7
GAS LISTING /tmp/ccRokYmj.s 			page 2


  41:src/MySemaphore.cpp ****     if(id == nullptr)
  17              		.loc 1 41 1 is_stmt 0
  18 0004 130101FE 		addi	sp,sp,-32
  19              		.cfi_def_cfa_offset 32
  20 0008 233C1100 		sd	ra,24(sp)
  21 000c 23388100 		sd	s0,16(sp)
  22 0010 23349100 		sd	s1,8(sp)
  23 0014 23302101 		sd	s2,0(sp)
  24              		.cfi_offset 1, -8
  25              		.cfi_offset 8, -16
  26              		.cfi_offset 9, -24
  27              		.cfi_offset 18, -32
  28 0018 13040102 		addi	s0,sp,32
  29              		.cfi_def_cfa 8, 0
  30 001c 93040500 		mv	s1,a0
  43:src/MySemaphore.cpp ****     {
  44:src/MySemaphore.cpp ****         return -2;
  45:src/MySemaphore.cpp ****     }
  46:src/MySemaphore.cpp **** 
  47:src/MySemaphore.cpp ****     id->value = id->value - 1;
  31              		.loc 1 47 5 is_stmt 1
  32              		.loc 1 47 21 is_stmt 0
  33 0020 83278501 		lw	a5,24(a0)
  34              		.loc 1 47 27
  35 0024 9B87F7FF 		addiw	a5,a5,-1
  36              		.loc 1 47 15
  37 0028 232CF500 		sw	a5,24(a0)
  48:src/MySemaphore.cpp **** 
  49:src/MySemaphore.cpp ****     if(id->value < 0)
  38              		.loc 1 49 5 is_stmt 1
  39              	.LBB32:
  40 002c 13970702 		slli	a4,a5,32
  41 0030 634A0702 		bltz	a4,.L13
  42              	.LVL1:
  43              	.L3:
  44              	.LBE32:
  50:src/MySemaphore.cpp ****     {
  51:src/MySemaphore.cpp ****         thread_t oldRunning = TCB::running;
  52:src/MySemaphore.cpp ****         id->semaphoreQueue.addLast(oldRunning);
  53:src/MySemaphore.cpp **** 
  54:src/MySemaphore.cpp ****         thread_t newRunning = Scheduler::getInstance().get();
  55:src/MySemaphore.cpp ****         TCB::running = newRunning;
  56:src/MySemaphore.cpp ****         TCB::contextSwitch(&oldRunning->context, &newRunning->context);
  57:src/MySemaphore.cpp ****     }
  58:src/MySemaphore.cpp **** 
  59:src/MySemaphore.cpp ****     if(TCB::running->semClosed)
  45              		.loc 1 59 5
  46              		.loc 1 59 22 is_stmt 0
  47 0034 97070000 		la	a5,_ZN3TCB7runningE
  47      83B70700 
  48 003c 83B70700 		ld	a5,0(a5)
  49 0040 83C79702 		lbu	a5,41(a5)
  50              		.loc 1 59 5
  51 0044 6398070A 		bnez	a5,.L8
  60:src/MySemaphore.cpp ****     {
  61:src/MySemaphore.cpp ****         return -1;
  62:src/MySemaphore.cpp ****     }
GAS LISTING /tmp/ccRokYmj.s 			page 3


  63:src/MySemaphore.cpp **** 
  64:src/MySemaphore.cpp ****     return 0;
  52              		.loc 1 64 12
  53 0048 13050000 		li	a0,0
  54              	.L2:
  65:src/MySemaphore.cpp **** }
  55              		.loc 1 65 1
  56 004c 83308101 		ld	ra,24(sp)
  57              		.cfi_remember_state
  58              		.cfi_restore 1
  59 0050 03340101 		ld	s0,16(sp)
  60              		.cfi_restore 8
  61              		.cfi_def_cfa 2, 32
  62 0054 83348100 		ld	s1,8(sp)
  63              		.cfi_restore 9
  64              	.LVL2:
  65 0058 03390100 		ld	s2,0(sp)
  66              		.cfi_restore 18
  67 005c 13010102 		addi	sp,sp,32
  68              		.cfi_def_cfa_offset 0
  69 0060 67800000 		jr	ra
  70              	.LVL3:
  71              	.L13:
  72              		.cfi_restore_state
  73              	.LBB41:
  74              	.LBB33:
  51:src/MySemaphore.cpp ****         id->semaphoreQueue.addLast(oldRunning);
  75              		.loc 1 51 9 is_stmt 1
  51:src/MySemaphore.cpp ****         id->semaphoreQueue.addLast(oldRunning);
  76              		.loc 1 51 18 is_stmt 0
  77 0064 97070000 		la	a5,_ZN3TCB7runningE
  77      83B70700 
  78 006c 03B90700 		ld	s2,0(a5)
  79              	.LVL4:
  52:src/MySemaphore.cpp **** 
  80              		.loc 1 52 9 is_stmt 1
  81              	.LBB34:
  82              	.LBB35:
  83              		.file 2 "src/../h/list.hpp"
   1:src/../h/list.hpp **** //
   2:src/../h/list.hpp **** // Created by os on 5/17/24.
   3:src/../h/list.hpp **** //
   4:src/../h/list.hpp **** 
   5:src/../h/list.hpp **** #ifndef PROJECT_BASE_LIST_HPP
   6:src/../h/list.hpp **** #define PROJECT_BASE_LIST_HPP
   7:src/../h/list.hpp **** 
   8:src/../h/list.hpp **** #include "MemoryAllocator.hpp"
   9:src/../h/list.hpp **** 
  10:src/../h/list.hpp **** template<typename T>
  11:src/../h/list.hpp **** class List
  12:src/../h/list.hpp **** {
  13:src/../h/list.hpp **** private:
  14:src/../h/list.hpp ****     struct Elem
  15:src/../h/list.hpp ****     {
  16:src/../h/list.hpp ****         T *data;
  17:src/../h/list.hpp ****         Elem *next;
  18:src/../h/list.hpp **** 
GAS LISTING /tmp/ccRokYmj.s 			page 4


  19:src/../h/list.hpp ****         Elem(T *data, Elem *next) : data(data), next(next) {}
  20:src/../h/list.hpp ****     };
  21:src/../h/list.hpp **** 
  22:src/../h/list.hpp ****     Elem *head, *tail;
  23:src/../h/list.hpp ****     unsigned int n;
  24:src/../h/list.hpp **** 
  25:src/../h/list.hpp **** public:
  26:src/../h/list.hpp ****     List() : head(0), tail(0), n(0) {}
  27:src/../h/list.hpp **** 
  28:src/../h/list.hpp ****     List(const List<T> &) = delete;
  29:src/../h/list.hpp **** 
  30:src/../h/list.hpp ****     List<T> &operator=(const List<T> &) = delete;
  31:src/../h/list.hpp **** 
  32:src/../h/list.hpp ****     unsigned int numberOfElements()
  33:src/../h/list.hpp ****     {
  34:src/../h/list.hpp ****         return n;
  35:src/../h/list.hpp ****     };
  36:src/../h/list.hpp **** 
  37:src/../h/list.hpp ****     void addFirst(T *data)
  38:src/../h/list.hpp ****     {
  39:src/../h/list.hpp ****         Elem *elem = new Elem(data, head);
  40:src/../h/list.hpp ****         head = elem;
  41:src/../h/list.hpp ****         if (!tail) { tail = head; }
  42:src/../h/list.hpp ****         n++;
  43:src/../h/list.hpp ****     }
  44:src/../h/list.hpp **** 
  45:src/../h/list.hpp ****     void addLast(T *data)
  46:src/../h/list.hpp ****     {
  47:src/../h/list.hpp **** 
  48:src/../h/list.hpp ****         Elem* elem = (Elem*) MemoryAllocator::mem_alloc((sizeof(Elem) + MEM_BLOCK_SIZE - 1) / MEM_B
  84              		.loc 2 48 56 is_stmt 0
  85 0070 13051000 		li	a0,1
  86 0074 97000000 		call	_ZN15MemoryAllocator9mem_allocEm@plt
  86      E7800000 
  87              	.LVL5:
  49:src/../h/list.hpp ****         elem->data = data;
  88              		.loc 2 49 9
  89 007c 23302501 		sd	s2,0(a0)
  50:src/../h/list.hpp ****         elem->next = nullptr;
  90              		.loc 2 50 9
  91 0080 23340500 		sd	zero,8(a0)
  51:src/../h/list.hpp **** 
  52:src/../h/list.hpp ****         if (tail)
  92              		.loc 2 52 13
  93 0084 83B78400 		ld	a5,8(s1)
  94              		.loc 2 52 9
  95 0088 638C0704 		beqz	a5,.L4
  53:src/../h/list.hpp ****         {
  54:src/../h/list.hpp ****             tail->next = elem;
  96              		.loc 2 54 13
  97 008c 23B4A700 		sd	a0,8(a5)
  55:src/../h/list.hpp ****             tail = elem;
  98              		.loc 2 55 13
  99 0090 23B4A400 		sd	a0,8(s1)
 100              	.L5:
  56:src/../h/list.hpp ****         }
  57:src/../h/list.hpp **** 
GAS LISTING /tmp/ccRokYmj.s 			page 5


  58:src/../h/list.hpp ****         else
  59:src/../h/list.hpp ****         {
  60:src/../h/list.hpp ****             head = tail = elem;
  61:src/../h/list.hpp ****         }
  62:src/../h/list.hpp **** 
  63:src/../h/list.hpp ****         n++;
 101              		.loc 2 63 9
 102 0094 83A70401 		lw	a5,16(s1)
 103 0098 9B871700 		addiw	a5,a5,1
 104 009c 23A8F400 		sw	a5,16(s1)
 105              	.LVL6:
 106              	.LBE35:
 107              	.LBE34:
  54:src/MySemaphore.cpp ****         TCB::running = newRunning;
 108              		.loc 1 54 9 is_stmt 1
 109              	.LBB37:
 110              	.LBB38:
 111              		.file 3 "src/../h/scheduler.hpp"
   1:src/../h/scheduler.hpp **** //
   2:src/../h/scheduler.hpp **** // Created by os on 5/17/24.
   3:src/../h/scheduler.hpp **** //
   4:src/../h/scheduler.hpp **** 
   5:src/../h/scheduler.hpp **** #ifndef PROJECT_BASE_SCHEDULER_HPP
   6:src/../h/scheduler.hpp **** #define PROJECT_BASE_SCHEDULER_HPP
   7:src/../h/scheduler.hpp **** 
   8:src/../h/scheduler.hpp **** #include "list.hpp"
   9:src/../h/scheduler.hpp **** 
  10:src/../h/scheduler.hpp **** class TCB;
  11:src/../h/scheduler.hpp **** 
  12:src/../h/scheduler.hpp **** class Scheduler
  13:src/../h/scheduler.hpp **** {
  14:src/../h/scheduler.hpp **** private:
  15:src/../h/scheduler.hpp **** 
  16:src/../h/scheduler.hpp ****     static List<TCB> readyThreadQueue;
  17:src/../h/scheduler.hpp **** 
  18:src/../h/scheduler.hpp ****     Scheduler() = default;
  19:src/../h/scheduler.hpp ****     ~Scheduler() = default;
  20:src/../h/scheduler.hpp **** 
  21:src/../h/scheduler.hpp **** public:
  22:src/../h/scheduler.hpp **** 
  23:src/../h/scheduler.hpp **** 
  24:src/../h/scheduler.hpp ****     static TCB* get();
  25:src/../h/scheduler.hpp **** 
  26:src/../h/scheduler.hpp ****     static void put(TCB *tcb);
  27:src/../h/scheduler.hpp **** 
  28:src/../h/scheduler.hpp ****     static Scheduler& getInstance()
  29:src/../h/scheduler.hpp ****     {
  30:src/../h/scheduler.hpp ****         static Scheduler instance;
 112              		.loc 3 30 9
 113              		.loc 3 30 26 is_stmt 0
 114 00a0 97070000 		lbu	a5,_ZGVZN9Scheduler11getInstanceEvE8instance
 114      83C70700 
 115 00a8 63980700 		bnez	a5,.L6
 116 00ac 93071000 		li	a5,1
 117 00b0 17070000 		sb	a5,_ZGVZN9Scheduler11getInstanceEvE8instance,a4
 117      2300F700 
 118              	.L6:
GAS LISTING /tmp/ccRokYmj.s 			page 6


  31:src/../h/scheduler.hpp ****         return instance;
 119              		.loc 3 31 9 is_stmt 1
 120              	.LBE38:
 121              	.LBE37:
  54:src/MySemaphore.cpp ****         TCB::running = newRunning;
 122              		.loc 1 54 60 is_stmt 0
 123 00b8 97000000 		call	_ZN9Scheduler3getEv@plt
 123      E7800000 
 124              	.LVL7:
  55:src/MySemaphore.cpp ****         TCB::contextSwitch(&oldRunning->context, &newRunning->context);
 125              		.loc 1 55 9 is_stmt 1
  55:src/MySemaphore.cpp ****         TCB::contextSwitch(&oldRunning->context, &newRunning->context);
 126              		.loc 1 55 22 is_stmt 0
 127 00c0 97070000 		la	a5,_ZN3TCB7runningE
 127      83B70700 
 128 00c8 23B0A700 		sd	a0,0(a5)
  56:src/MySemaphore.cpp ****     }
 129              		.loc 1 56 9 is_stmt 1
  56:src/MySemaphore.cpp ****     }
 130              		.loc 1 56 27 is_stmt 0
 131 00cc 93058501 		addi	a1,a0,24
 132 00d0 13058901 		addi	a0,s2,24
 133              	.LVL8:
 134 00d4 97000000 		call	_ZN3TCB13contextSwitchEPNS_7ContextES1_@plt
 134      E7800000 
 135              	.LVL9:
 136              	.LBE33:
 137 00dc 6FF09FF5 		j	.L3
 138              	.LVL10:
 139              	.L4:
 140              	.LBB40:
 141              	.LBB39:
 142              	.LBB36:
  60:src/../h/list.hpp ****         }
 143              		.loc 2 60 13
 144 00e0 23B4A400 		sd	a0,8(s1)
 145 00e4 23B0A400 		sd	a0,0(s1)
 146 00e8 6FF0DFFA 		j	.L5
 147              	.LVL11:
 148              	.L7:
 149              		.cfi_def_cfa_register 2
 150              		.cfi_restore 1
 151              		.cfi_restore 8
 152              		.cfi_restore 9
 153              		.cfi_restore 18
 154              	.LBE36:
 155              	.LBE39:
 156              	.LBE40:
 157              	.LBE41:
  44:src/MySemaphore.cpp ****     }
 158              		.loc 1 44 17
 159 00ec 1305E0FF 		li	a0,-2
 160              	.LVL12:
 161              		.loc 1 65 1
 162 00f0 67800000 		ret
 163              	.LVL13:
 164              	.L8:
GAS LISTING /tmp/ccRokYmj.s 			page 7


 165              		.cfi_def_cfa_register 8
 166              		.cfi_offset 1, -8
 167              		.cfi_offset 8, -16
 168              		.cfi_offset 9, -24
 169              		.cfi_offset 18, -32
  61:src/MySemaphore.cpp ****     }
 170              		.loc 1 61 17
 171 00f4 1305F0FF 		li	a0,-1
 172 00f8 6FF05FF5 		j	.L2
 173              		.cfi_endproc
 174              	.LFE25:
 176              		.align	2
 177              		.globl	_ZN11MySemaphore10sem_signalEPS_
 179              	_ZN11MySemaphore10sem_signalEPS_:
 180              	.LFB26:
  66:src/MySemaphore.cpp **** 
  67:src/MySemaphore.cpp **** int MySemaphore::sem_signal(sem_t id)
  68:src/MySemaphore.cpp **** {
 181              		.loc 1 68 1 is_stmt 1
 182              		.cfi_startproc
 183              	.LVL14:
  69:src/MySemaphore.cpp ****     if(id == nullptr)
 184              		.loc 1 69 5
 185 00fc 630C050A 		beqz	a0,.L19
  68:src/MySemaphore.cpp ****     if(id == nullptr)
 186              		.loc 1 68 1 is_stmt 0
 187 0100 130101FE 		addi	sp,sp,-32
 188              		.cfi_def_cfa_offset 32
 189 0104 233C1100 		sd	ra,24(sp)
 190 0108 23388100 		sd	s0,16(sp)
 191 010c 23349100 		sd	s1,8(sp)
 192 0110 23302101 		sd	s2,0(sp)
 193              		.cfi_offset 1, -8
 194              		.cfi_offset 8, -16
 195              		.cfi_offset 9, -24
 196              		.cfi_offset 18, -32
 197 0114 13040102 		addi	s0,sp,32
 198              		.cfi_def_cfa 8, 0
 199 0118 93040500 		mv	s1,a0
  70:src/MySemaphore.cpp ****     {
  71:src/MySemaphore.cpp ****         return -2;
  72:src/MySemaphore.cpp ****     }
  73:src/MySemaphore.cpp **** 
  74:src/MySemaphore.cpp ****     id->value = id->value + 1;
 200              		.loc 1 74 5 is_stmt 1
 201              		.loc 1 74 21 is_stmt 0
 202 011c 83278501 		lw	a5,24(a0)
 203              		.loc 1 74 27
 204 0120 9B871700 		addiw	a5,a5,1
 205 0124 1B870700 		sext.w	a4,a5
 206              		.loc 1 74 15
 207 0128 232CF500 		sw	a5,24(a0)
  75:src/MySemaphore.cpp **** 
  76:src/MySemaphore.cpp ****     if(id->value <= 0)
 208              		.loc 1 76 5 is_stmt 1
 209              	.LBB48:
 210 012c 6350E002 		blez	a4,.L26
GAS LISTING /tmp/ccRokYmj.s 			page 8


 211              	.LBE48:
  77:src/MySemaphore.cpp ****     {
  78:src/MySemaphore.cpp ****         thread_t unblocked = id->semaphoreQueue.removeFirst();
  79:src/MySemaphore.cpp ****         Scheduler::getInstance().put(unblocked);
  80:src/MySemaphore.cpp ****     }
  81:src/MySemaphore.cpp **** 
  82:src/MySemaphore.cpp ****     return 0;
 212              		.loc 1 82 12 is_stmt 0
 213 0130 13050000 		li	a0,0
 214              	.LVL15:
 215              	.L15:
  83:src/MySemaphore.cpp **** }
 216              		.loc 1 83 1
 217 0134 83308101 		ld	ra,24(sp)
 218              		.cfi_remember_state
 219              		.cfi_restore 1
 220 0138 03340101 		ld	s0,16(sp)
 221              		.cfi_restore 8
 222              		.cfi_def_cfa 2, 32
 223 013c 83348100 		ld	s1,8(sp)
 224              		.cfi_restore 9
 225              	.LVL16:
 226 0140 03390100 		ld	s2,0(sp)
 227              		.cfi_restore 18
 228 0144 13010102 		addi	sp,sp,32
 229              		.cfi_def_cfa_offset 0
 230 0148 67800000 		jr	ra
 231              	.LVL17:
 232              	.L26:
 233              		.cfi_restore_state
 234              	.LBB57:
 235              	.LBB49:
  78:src/MySemaphore.cpp ****         Scheduler::getInstance().put(unblocked);
 236              		.loc 1 78 9 is_stmt 1
 237              	.LBB50:
 238              	.LBB51:
  64:src/../h/list.hpp ****     }
  65:src/../h/list.hpp **** 
  66:src/../h/list.hpp ****     T *removeFirst()
  67:src/../h/list.hpp ****     {
  68:src/../h/list.hpp ****         if (!head) { return 0; }
 239              		.loc 2 68 14 is_stmt 0
 240 014c 03350500 		ld	a0,0(a0)
 241              		.loc 2 68 9
 242 0150 630E0504 		beqz	a0,.L21
 243              	.LVL18:
  69:src/../h/list.hpp **** 
  70:src/../h/list.hpp ****         Elem *elem = head;
  71:src/../h/list.hpp ****         head = head->next;
 244              		.loc 2 71 22
 245 0154 83378500 		ld	a5,8(a0)
 246              		.loc 2 71 9
 247 0158 23B0F400 		sd	a5,0(s1)
  72:src/../h/list.hpp ****         if (!head) { tail = 0; }
 248              		.loc 2 72 9
 249 015c 63840704 		beqz	a5,.L27
 250              	.L17:
GAS LISTING /tmp/ccRokYmj.s 			page 9


  73:src/../h/list.hpp **** 
  74:src/../h/list.hpp ****         T *ret = elem->data;
 251              		.loc 2 74 12
 252 0160 03390500 		ld	s2,0(a0)
 253              	.LVL19:
  75:src/../h/list.hpp **** 
  76:src/../h/list.hpp ****         MemoryAllocator::mem_free(elem);
 254              		.loc 2 76 34
 255 0164 97000000 		call	_ZN15MemoryAllocator8mem_freeEPv@plt
 255      E7800000 
 256              	.LVL20:
  77:src/../h/list.hpp **** 
  78:src/../h/list.hpp ****         n--;
 257              		.loc 2 78 9
 258 016c 83A70401 		lw	a5,16(s1)
 259 0170 9B87F7FF 		addiw	a5,a5,-1
 260 0174 23A8F400 		sw	a5,16(s1)
 261              	.LVL21:
 262              	.L16:
 263              	.LBE51:
 264              	.LBE50:
  79:src/MySemaphore.cpp ****     }
 265              		.loc 1 79 9 is_stmt 1
 266              	.LBB53:
 267              	.LBB54:
  30:src/../h/scheduler.hpp ****         return instance;
 268              		.loc 3 30 9
  30:src/../h/scheduler.hpp ****         return instance;
 269              		.loc 3 30 26 is_stmt 0
 270 0178 97070000 		lbu	a5,_ZGVZN9Scheduler11getInstanceEvE8instance
 270      83C70700 
 271 0180 63980700 		bnez	a5,.L18
 272 0184 93071000 		li	a5,1
 273 0188 17070000 		sb	a5,_ZGVZN9Scheduler11getInstanceEvE8instance,a4
 273      2300F700 
 274              	.L18:
 275              		.loc 3 31 9 is_stmt 1
 276              	.LBE54:
 277              	.LBE53:
  79:src/MySemaphore.cpp ****     }
 278              		.loc 1 79 47 is_stmt 0
 279 0190 13050900 		mv	a0,s2
 280 0194 97000000 		call	_ZN9Scheduler3putEP3TCB@plt
 280      E7800000 
 281              	.LVL22:
 282              	.LBE49:
 283              	.LBE57:
  82:src/MySemaphore.cpp **** }
 284              		.loc 1 82 12
 285 019c 13050000 		li	a0,0
 286              	.LBB58:
 287 01a0 6FF05FF9 		j	.L15
 288              	.LVL23:
 289              	.L27:
 290              	.LBB56:
 291              	.LBB55:
 292              	.LBB52:
GAS LISTING /tmp/ccRokYmj.s 			page 10


  72:src/../h/list.hpp **** 
 293              		.loc 2 72 22
 294 01a4 23B40400 		sd	zero,8(s1)
 295 01a8 6FF09FFB 		j	.L17
 296              	.LVL24:
 297              	.L21:
  68:src/../h/list.hpp **** 
 298              		.loc 2 68 29
 299 01ac 13090500 		mv	s2,a0
 300 01b0 6FF09FFC 		j	.L16
 301              	.LVL25:
 302              	.L19:
 303              		.cfi_def_cfa_register 2
 304              		.cfi_restore 1
 305              		.cfi_restore 8
 306              		.cfi_restore 9
 307              		.cfi_restore 18
 308              	.LBE52:
 309              	.LBE55:
 310              	.LBE56:
 311              	.LBE58:
  71:src/MySemaphore.cpp ****     }
 312              		.loc 1 71 17
 313 01b4 1305E0FF 		li	a0,-2
 314              	.LVL26:
 315              		.loc 1 83 1
 316 01b8 67800000 		ret
 317              		.cfi_endproc
 318              	.LFE26:
 320              		.align	2
 321              		.globl	_ZN11MySemaphore11sem_trywaitEPS_
 323              	_ZN11MySemaphore11sem_trywaitEPS_:
 324              	.LFB27:
  84:src/MySemaphore.cpp **** 
  85:src/MySemaphore.cpp **** int MySemaphore::sem_trywait(sem_t id)
  86:src/MySemaphore.cpp **** {
 325              		.loc 1 86 1 is_stmt 1
 326              		.cfi_startproc
 327              	.LVL27:
 328 01bc 130101FF 		addi	sp,sp,-16
 329              		.cfi_def_cfa_offset 16
 330 01c0 23348100 		sd	s0,8(sp)
 331              		.cfi_offset 8, -8
 332 01c4 13040101 		addi	s0,sp,16
 333              		.cfi_def_cfa 8, 0
  87:src/MySemaphore.cpp ****     if(id == nullptr)
 334              		.loc 1 87 5
 335 01c8 63040502 		beqz	a0,.L30
  88:src/MySemaphore.cpp ****     {
  89:src/MySemaphore.cpp ****         return -2;
  90:src/MySemaphore.cpp ****     }
  91:src/MySemaphore.cpp **** 
  92:src/MySemaphore.cpp ****     id->value = id->value - 1;
 336              		.loc 1 92 5
 337              		.loc 1 92 21 is_stmt 0
 338 01cc 83278501 		lw	a5,24(a0)
 339              		.loc 1 92 27
GAS LISTING /tmp/ccRokYmj.s 			page 11


 340 01d0 9B87F7FF 		addiw	a5,a5,-1
 341              		.loc 1 92 15
 342 01d4 232CF500 		sw	a5,24(a0)
  93:src/MySemaphore.cpp **** 
  94:src/MySemaphore.cpp ****     if(id->value < 0)
 343              		.loc 1 94 5 is_stmt 1
 344 01d8 13970702 		slli	a4,a5,32
 345 01dc 634E0700 		bltz	a4,.L31
  95:src/MySemaphore.cpp ****     {
  96:src/MySemaphore.cpp ****         return 0;
  97:src/MySemaphore.cpp ****     }
  98:src/MySemaphore.cpp **** 
  99:src/MySemaphore.cpp ****     return 1;
 346              		.loc 1 99 12 is_stmt 0
 347 01e0 13051000 		li	a0,1
 348              	.LVL28:
 349              	.L29:
 100:src/MySemaphore.cpp **** }
 350              		.loc 1 100 1
 351 01e4 03348100 		ld	s0,8(sp)
 352              		.cfi_remember_state
 353              		.cfi_restore 8
 354              		.cfi_def_cfa 2, 16
 355 01e8 13010101 		addi	sp,sp,16
 356              		.cfi_def_cfa_offset 0
 357 01ec 67800000 		jr	ra
 358              	.LVL29:
 359              	.L30:
 360              		.cfi_restore_state
  89:src/MySemaphore.cpp ****     }
 361              		.loc 1 89 17
 362 01f0 1305E0FF 		li	a0,-2
 363              	.LVL30:
 364 01f4 6FF01FFF 		j	.L29
 365              	.LVL31:
 366              	.L31:
  96:src/MySemaphore.cpp ****     }
 367              		.loc 1 96 16
 368 01f8 13050000 		li	a0,0
 369              	.LVL32:
 370 01fc 6FF09FFE 		j	.L29
 371              		.cfi_endproc
 372              	.LFE27:
 374              		.align	2
 375              		.globl	_ZN11MySemaphorenwEm
 377              	_ZN11MySemaphorenwEm:
 378              	.LFB28:
 101:src/MySemaphore.cpp **** 
 102:src/MySemaphore.cpp **** 
 103:src/MySemaphore.cpp **** void *MySemaphore::operator new(size_t size)
 104:src/MySemaphore.cpp **** {
 379              		.loc 1 104 1 is_stmt 1
 380              		.cfi_startproc
 381              	.LVL33:
 382 0200 130101FF 		addi	sp,sp,-16
 383              		.cfi_def_cfa_offset 16
 384 0204 23341100 		sd	ra,8(sp)
GAS LISTING /tmp/ccRokYmj.s 			page 12


 385 0208 23308100 		sd	s0,0(sp)
 386              		.cfi_offset 1, -8
 387              		.cfi_offset 8, -16
 388 020c 13040101 		addi	s0,sp,16
 389              		.cfi_def_cfa 8, 0
 105:src/MySemaphore.cpp ****     return (sem_t) MemoryAllocator::mem_alloc((sizeof(MySemaphore) + MEM_BLOCK_SIZE - 1) / MEM_BLOC
 390              		.loc 1 105 5
 391              		.loc 1 105 46 is_stmt 0
 392 0210 13051000 		li	a0,1
 393              	.LVL34:
 394 0214 97000000 		call	_ZN15MemoryAllocator9mem_allocEm@plt
 394      E7800000 
 395              	.LVL35:
 106:src/MySemaphore.cpp **** }
 396              		.loc 1 106 1
 397 021c 83308100 		ld	ra,8(sp)
 398              		.cfi_restore 1
 399 0220 03340100 		ld	s0,0(sp)
 400              		.cfi_restore 8
 401              		.cfi_def_cfa 2, 16
 402 0224 13010101 		addi	sp,sp,16
 403              		.cfi_def_cfa_offset 0
 404 0228 67800000 		jr	ra
 405              		.cfi_endproc
 406              	.LFE28:
 408              		.align	2
 409              		.globl	_ZN11MySemaphore8sem_openEPPS_j
 411              	_ZN11MySemaphore8sem_openEPPS_j:
 412              	.LFB23:
  10:src/MySemaphore.cpp ****     *handle = new MySemaphore(init);
 413              		.loc 1 10 1 is_stmt 1
 414              		.cfi_startproc
 415              	.LVL36:
 416 022c 130101FE 		addi	sp,sp,-32
 417              		.cfi_def_cfa_offset 32
 418 0230 233C1100 		sd	ra,24(sp)
 419 0234 23388100 		sd	s0,16(sp)
 420 0238 23349100 		sd	s1,8(sp)
 421 023c 23302101 		sd	s2,0(sp)
 422              		.cfi_offset 1, -8
 423              		.cfi_offset 8, -16
 424              		.cfi_offset 9, -24
 425              		.cfi_offset 18, -32
 426 0240 13040102 		addi	s0,sp,32
 427              		.cfi_def_cfa 8, 0
 428 0244 93040500 		mv	s1,a0
 429 0248 13890500 		mv	s2,a1
  11:src/MySemaphore.cpp **** 
 430              		.loc 1 11 5
  11:src/MySemaphore.cpp **** 
 431              		.loc 1 11 35 is_stmt 0
 432 024c 13050002 		li	a0,32
 433              	.LVL37:
 434 0250 97000000 		call	_ZN11MySemaphorenwEm
 434      E7800000 
 435              	.LVL38:
 436              	.LBB59:
GAS LISTING /tmp/ccRokYmj.s 			page 13


 437              	.LBB60:
 438              	.LBB61:
 439              	.LBB62:
  26:src/../h/list.hpp **** 
 440              		.loc 2 26 35
 441 0258 23300500 		sd	zero,0(a0)
 442 025c 23340500 		sd	zero,8(a0)
 443 0260 23280500 		sw	zero,16(a0)
 444              	.LVL39:
 445              	.LBE62:
 446              	.LBE61:
 447              		.file 4 "src/../h/MySemaphore.hpp"
   1:src/../h/MySemaphore.hpp **** //
   2:src/../h/MySemaphore.hpp **** // Created by os on 6/25/24.
   3:src/../h/MySemaphore.hpp **** //
   4:src/../h/MySemaphore.hpp **** 
   5:src/../h/MySemaphore.hpp **** #ifndef PROJECT_BASE_MYSEMAPHORE_HPP
   6:src/../h/MySemaphore.hpp **** #define PROJECT_BASE_MYSEMAPHORE_HPP
   7:src/../h/MySemaphore.hpp **** 
   8:src/../h/MySemaphore.hpp **** #include "syscall_c.hpp"
   9:src/../h/MySemaphore.hpp **** #include "list.hpp"
  10:src/../h/MySemaphore.hpp **** #include "scheduler.hpp"
  11:src/../h/MySemaphore.hpp **** 
  12:src/../h/MySemaphore.hpp **** class MySemaphore{
  13:src/../h/MySemaphore.hpp **** 
  14:src/../h/MySemaphore.hpp **** public:
  15:src/../h/MySemaphore.hpp **** 
  16:src/../h/MySemaphore.hpp ****     MySemaphore(unsigned value): value(value){}
 448              		.loc 4 16 45
 449 0264 232C2501 		sw	s2,24(a0)
 450              	.LVL40:
 451              	.LBE60:
 452              	.LBE59:
  11:src/MySemaphore.cpp **** 
 453              		.loc 1 11 13
 454 0268 23B0A400 		sd	a0,0(s1)
  13:src/MySemaphore.cpp ****     {
 455              		.loc 1 13 5 is_stmt 1
 456 026c 63000502 		beqz	a0,.L37
  18:src/MySemaphore.cpp **** }
 457              		.loc 1 18 12 is_stmt 0
 458 0270 13050000 		li	a0,0
 459              	.L36:
  19:src/MySemaphore.cpp **** 
 460              		.loc 1 19 1
 461 0274 83308101 		ld	ra,24(sp)
 462              		.cfi_remember_state
 463              		.cfi_restore 1
 464 0278 03340101 		ld	s0,16(sp)
 465              		.cfi_restore 8
 466              		.cfi_def_cfa 2, 32
 467 027c 83348100 		ld	s1,8(sp)
 468              		.cfi_restore 9
 469              	.LVL41:
 470 0280 03390100 		ld	s2,0(sp)
 471              		.cfi_restore 18
 472 0284 13010102 		addi	sp,sp,32
GAS LISTING /tmp/ccRokYmj.s 			page 14


 473              		.cfi_def_cfa_offset 0
 474 0288 67800000 		jr	ra
 475              	.LVL42:
 476              	.L37:
 477              		.cfi_restore_state
  15:src/MySemaphore.cpp ****     }
 478              		.loc 1 15 17
 479 028c 1305F0FF 		li	a0,-1
 480 0290 6FF05FFE 		j	.L36
 481              		.cfi_endproc
 482              	.LFE23:
 484              		.align	2
 485              		.globl	_ZN11MySemaphoredlEPv
 487              	_ZN11MySemaphoredlEPv:
 488              	.LFB29:
 107:src/MySemaphore.cpp **** 
 108:src/MySemaphore.cpp **** void MySemaphore::operator delete(void *address)
 109:src/MySemaphore.cpp **** {
 489              		.loc 1 109 1 is_stmt 1
 490              		.cfi_startproc
 491              	.LVL43:
 492 0294 130101FF 		addi	sp,sp,-16
 493              		.cfi_def_cfa_offset 16
 494 0298 23341100 		sd	ra,8(sp)
 495 029c 23308100 		sd	s0,0(sp)
 496              		.cfi_offset 1, -8
 497              		.cfi_offset 8, -16
 498 02a0 13040101 		addi	s0,sp,16
 499              		.cfi_def_cfa 8, 0
 110:src/MySemaphore.cpp ****     MemoryAllocator::mem_free(address);
 500              		.loc 1 110 5
 501              		.loc 1 110 30 is_stmt 0
 502 02a4 97000000 		call	_ZN15MemoryAllocator8mem_freeEPv@plt
 502      E7800000 
 503              	.LVL44:
 111:src/MySemaphore.cpp **** }
 504              		.loc 1 111 1
 505 02ac 83308100 		ld	ra,8(sp)
 506              		.cfi_restore 1
 507 02b0 03340100 		ld	s0,0(sp)
 508              		.cfi_restore 8
 509              		.cfi_def_cfa 2, 16
 510 02b4 13010101 		addi	sp,sp,16
 511              		.cfi_def_cfa_offset 0
 512 02b8 67800000 		jr	ra
 513              		.cfi_endproc
 514              	.LFE29:
 516              		.align	2
 517              		.globl	_ZN11MySemaphore9sem_closeEPS_
 519              	_ZN11MySemaphore9sem_closeEPS_:
 520              	.LFB24:
  22:src/MySemaphore.cpp ****     if(handle == nullptr)
 521              		.loc 1 22 1 is_stmt 1
 522              		.cfi_startproc
 523              	.LVL45:
  23:src/MySemaphore.cpp ****     {
 524              		.loc 1 23 5
GAS LISTING /tmp/ccRokYmj.s 			page 15


 525 02bc 6308050C 		beqz	a0,.L48
  22:src/MySemaphore.cpp ****     if(handle == nullptr)
 526              		.loc 1 22 1 is_stmt 0
 527 02c0 130101FD 		addi	sp,sp,-48
 528              		.cfi_def_cfa_offset 48
 529 02c4 23341102 		sd	ra,40(sp)
 530 02c8 23308102 		sd	s0,32(sp)
 531 02cc 233C9100 		sd	s1,24(sp)
 532 02d0 23382101 		sd	s2,16(sp)
 533 02d4 23343101 		sd	s3,8(sp)
 534              		.cfi_offset 1, -8
 535              		.cfi_offset 8, -16
 536              		.cfi_offset 9, -24
 537              		.cfi_offset 18, -32
 538              		.cfi_offset 19, -40
 539 02d8 13040103 		addi	s0,sp,48
 540              		.cfi_def_cfa 8, 0
 541 02dc 93040500 		mv	s1,a0
 542              	.LBB71:
  28:src/MySemaphore.cpp ****     {
 543              		.loc 1 28 22
 544 02e0 13090000 		li	s2,0
 545 02e4 6F00C002 		j	.L47
 546              	.LVL46:
 547              	.L54:
 548              	.LBB72:
 549              	.LBB73:
 550              	.LBB74:
  72:src/../h/list.hpp **** 
 551              		.loc 2 72 22
 552 02e8 23B40400 		sd	zero,8(s1)
 553 02ec 6F000004 		j	.L45
 554              	.LVL47:
 555              	.L49:
  68:src/../h/list.hpp **** 
 556              		.loc 2 68 29
 557 02f0 93090500 		mv	s3,a0
 558 02f4 6F000005 		j	.L44
 559              	.LVL48:
 560              	.L46:
 561              	.LBE74:
 562              	.LBE73:
 563              	.LBB76:
 564              	.LBB77:
 565              		.loc 3 31 9 is_stmt 1
 566              	.LBE77:
 567              	.LBE76:
  31:src/MySemaphore.cpp ****         tcb->semClosed = true;
 568              		.loc 1 31 41 is_stmt 0
 569 02f8 13850900 		mv	a0,s3
 570 02fc 97000000 		call	_ZN9Scheduler3putEP3TCB@plt
 570      E7800000 
 571              	.LVL49:
  32:src/MySemaphore.cpp ****     }
 572              		.loc 1 32 9 is_stmt 1
  32:src/MySemaphore.cpp ****     }
 573              		.loc 1 32 24 is_stmt 0
GAS LISTING /tmp/ccRokYmj.s 			page 16


 574 0304 93071000 		li	a5,1
 575 0308 A384F902 		sb	a5,41(s3)
 576              	.LBE72:
  28:src/MySemaphore.cpp ****     {
 577              		.loc 1 28 5 is_stmt 1
 578 030c 1B091900 		addiw	s2,s2,1
 579              	.LVL50:
 580              	.L47:
  28:src/MySemaphore.cpp ****     {
 581              		.loc 1 28 31 discriminator 3
 582              	.LBB81:
 583              	.LBB82:
  34:src/../h/list.hpp ****     };
 584              		.loc 2 34 16 is_stmt 0 discriminator 3
 585 0310 83A70401 		lw	a5,16(s1)
 586              	.LVL51:
 587              	.LBE82:
 588              	.LBE81:
  28:src/MySemaphore.cpp ****     {
 589              		.loc 1 28 31 discriminator 3
 590 0314 6376F904 		bgeu	s2,a5,.L43
 591              	.LBB83:
  30:src/MySemaphore.cpp ****         Scheduler::getInstance().put(tcb);
 592              		.loc 1 30 9 is_stmt 1 discriminator 2
 593              	.LVL52:
 594              	.LBB79:
 595              	.LBB75:
  68:src/../h/list.hpp **** 
 596              		.loc 2 68 14 is_stmt 0 discriminator 2
 597 0318 03B50400 		ld	a0,0(s1)
  68:src/../h/list.hpp **** 
 598              		.loc 2 68 9 discriminator 2
 599 031c E30A05FC 		beqz	a0,.L49
 600              	.LVL53:
  71:src/../h/list.hpp ****         if (!head) { tail = 0; }
 601              		.loc 2 71 22
 602 0320 83378500 		ld	a5,8(a0)
  71:src/../h/list.hpp ****         if (!head) { tail = 0; }
 603              		.loc 2 71 9
 604 0324 23B0F400 		sd	a5,0(s1)
  72:src/../h/list.hpp **** 
 605              		.loc 2 72 9
 606 0328 E38007FC 		beqz	a5,.L54
 607              	.L45:
  74:src/../h/list.hpp **** 
 608              		.loc 2 74 12
 609 032c 83390500 		ld	s3,0(a0)
 610              	.LVL54:
  76:src/../h/list.hpp **** 
 611              		.loc 2 76 34
 612 0330 97000000 		call	_ZN15MemoryAllocator8mem_freeEPv@plt
 612      E7800000 
 613              	.LVL55:
 614              		.loc 2 78 9
 615 0338 83A70401 		lw	a5,16(s1)
 616 033c 9B87F7FF 		addiw	a5,a5,-1
 617 0340 23A8F400 		sw	a5,16(s1)
GAS LISTING /tmp/ccRokYmj.s 			page 17


 618              	.LVL56:
 619              	.L44:
 620              	.LBE75:
 621              	.LBE79:
  31:src/MySemaphore.cpp ****         tcb->semClosed = true;
 622              		.loc 1 31 9 is_stmt 1
 623              	.LBB80:
 624              	.LBB78:
  30:src/../h/scheduler.hpp ****         return instance;
 625              		.loc 3 30 9
  30:src/../h/scheduler.hpp ****         return instance;
 626              		.loc 3 30 26 is_stmt 0
 627 0344 97070000 		lbu	a5,_ZGVZN9Scheduler11getInstanceEvE8instance
 627      83C70700 
 628 034c E39607FA 		bnez	a5,.L46
 629 0350 93071000 		li	a5,1
 630 0354 17070000 		sb	a5,_ZGVZN9Scheduler11getInstanceEvE8instance,a4
 630      2300F700 
 631 035c 6FF0DFF9 		j	.L46
 632              	.LVL57:
 633              	.L43:
 634              	.LBE78:
 635              	.LBE80:
 636              	.LBE83:
 637              	.LBE71:
  35:src/MySemaphore.cpp **** 
 638              		.loc 1 35 5 is_stmt 1 discriminator 1
  35:src/MySemaphore.cpp **** 
 639              		.loc 1 35 12 is_stmt 0 discriminator 1
 640 0360 13850400 		mv	a0,s1
 641 0364 97000000 		call	_ZN11MySemaphoredlEPv
 641      E7800000 
 642              	.LVL58:
  37:src/MySemaphore.cpp **** }
 643              		.loc 1 37 5 is_stmt 1 discriminator 1
  37:src/MySemaphore.cpp **** }
 644              		.loc 1 37 12 is_stmt 0 discriminator 1
 645 036c 13050000 		li	a0,0
  38:src/MySemaphore.cpp **** 
 646              		.loc 1 38 1 discriminator 1
 647 0370 83308102 		ld	ra,40(sp)
 648              		.cfi_restore 1
 649 0374 03340102 		ld	s0,32(sp)
 650              		.cfi_restore 8
 651              		.cfi_def_cfa 2, 48
 652 0378 83348101 		ld	s1,24(sp)
 653              		.cfi_restore 9
 654              	.LVL59:
 655 037c 03390101 		ld	s2,16(sp)
 656              		.cfi_restore 18
 657              	.LVL60:
 658 0380 83398100 		ld	s3,8(sp)
 659              		.cfi_restore 19
 660 0384 13010103 		addi	sp,sp,48
 661              		.cfi_def_cfa_offset 0
 662 0388 67800000 		jr	ra
 663              	.LVL61:
GAS LISTING /tmp/ccRokYmj.s 			page 18


 664              	.L48:
  25:src/MySemaphore.cpp ****     }
 665              		.loc 1 25 17
 666 038c 1305E0FF 		li	a0,-2
 667              	.LVL62:
  38:src/MySemaphore.cpp **** 
 668              		.loc 1 38 1
 669 0390 67800000 		ret
 670              		.cfi_endproc
 671              	.LFE24:
 673              		.align	2
 674              		.globl	_ZN11MySemaphore12sem_setValueEPS_i
 676              	_ZN11MySemaphore12sem_setValueEPS_i:
 677              	.LFB30:
 112:src/MySemaphore.cpp **** 
 113:src/MySemaphore.cpp **** void MySemaphore::sem_setValue(sem_t id, int value)
 114:src/MySemaphore.cpp **** {
 678              		.loc 1 114 1 is_stmt 1
 679              		.cfi_startproc
 680              	.LVL63:
 681 0394 130101FF 		addi	sp,sp,-16
 682              		.cfi_def_cfa_offset 16
 683 0398 23348100 		sd	s0,8(sp)
 684              		.cfi_offset 8, -8
 685 039c 13040101 		addi	s0,sp,16
 686              		.cfi_def_cfa 8, 0
 115:src/MySemaphore.cpp ****     id->value = value;
 687              		.loc 1 115 5
 688              		.loc 1 115 15 is_stmt 0
 689 03a0 232CB500 		sw	a1,24(a0)
 116:src/MySemaphore.cpp **** }
 690              		.loc 1 116 1
 691 03a4 03348100 		ld	s0,8(sp)
 692              		.cfi_restore 8
 693              		.cfi_def_cfa 2, 16
 694 03a8 13010101 		addi	sp,sp,16
 695              		.cfi_def_cfa_offset 0
 696 03ac 67800000 		jr	ra
 697              		.cfi_endproc
 698              	.LFE30:
 700              		.weak	_ZGVZN9Scheduler11getInstanceEvE8instance
 701              		.section	.bss._ZGVZN9Scheduler11getInstanceEvE8instance,"awG",@nobits,_ZGVZN9Scheduler11getInstanc
 702              		.align	3
 705              	_ZGVZN9Scheduler11getInstanceEvE8instance:
 706 0000 00000000 		.zero	8
 706      00000000 
 707              		.text
 708              	.Letext0:
 709              		.file 5 "src/../h/../lib/hw.h"
 710              		.file 6 "src/../h/syscall_c.hpp"
 711              		.file 7 "src/../h/tcb.hpp"
 712              		.file 8 "src/../h/MemoryAllocator.hpp"
GAS LISTING /tmp/ccRokYmj.s 			page 19

