GAS LISTING /tmp/ccZ0xtje.s 			page 1


   1              		.file	"syscall_cpp.cpp"
   2              		.option pic
   3              		.option norelax
   4              		.text
   5              	.Ltext0:
   6              		.section	.text._ZN6Thread3runEv,"axG",@progbits,_ZN6Thread3runEv,comdat
   7              		.align	2
   8              		.weak	_ZN6Thread3runEv
  10              	_ZN6Thread3runEv:
  11              	.LFB0:
  12              		.file 1 "src/../h/syscall_cpp.hpp"
   1:src/../h/syscall_cpp.hpp **** //
   2:src/../h/syscall_cpp.hpp **** // Created by os on 5/19/24.
   3:src/../h/syscall_cpp.hpp **** //
   4:src/../h/syscall_cpp.hpp **** 
   5:src/../h/syscall_cpp.hpp **** #ifndef PROJECT_BASE_SYSCALL_CPP_HPP
   6:src/../h/syscall_cpp.hpp **** #define PROJECT_BASE_SYSCALL_CPP_HPP
   7:src/../h/syscall_cpp.hpp **** 
   8:src/../h/syscall_cpp.hpp **** #include "syscall_c.hpp"
   9:src/../h/syscall_cpp.hpp **** 
  10:src/../h/syscall_cpp.hpp **** void* operator new(size_t);
  11:src/../h/syscall_cpp.hpp **** void operator delete(void*);
  12:src/../h/syscall_cpp.hpp **** 
  13:src/../h/syscall_cpp.hpp **** class Thread{
  14:src/../h/syscall_cpp.hpp **** 
  15:src/../h/syscall_cpp.hpp **** public:
  16:src/../h/syscall_cpp.hpp **** 
  17:src/../h/syscall_cpp.hpp ****     Thread(void (*body)(void*), void* arg);
  18:src/../h/syscall_cpp.hpp ****     virtual ~Thread();
  19:src/../h/syscall_cpp.hpp **** 
  20:src/../h/syscall_cpp.hpp ****     int start();
  21:src/../h/syscall_cpp.hpp **** 
  22:src/../h/syscall_cpp.hpp ****     static void dispatch();
  23:src/../h/syscall_cpp.hpp **** 
  24:src/../h/syscall_cpp.hpp ****     void send(char* message);
  25:src/../h/syscall_cpp.hpp ****     char* receive();
  26:src/../h/syscall_cpp.hpp **** 
  27:src/../h/syscall_cpp.hpp **** 
  28:src/../h/syscall_cpp.hpp **** protected:
  29:src/../h/syscall_cpp.hpp **** 
  30:src/../h/syscall_cpp.hpp ****     Thread();
  31:src/../h/syscall_cpp.hpp ****     virtual void run(){}
  13              		.loc 1 31 18
  14              		.cfi_startproc
  15              	.LVL0:
  16 0000 130101FF 		addi	sp,sp,-16
  17              		.cfi_def_cfa_offset 16
  18 0004 23348100 		sd	s0,8(sp)
  19              		.cfi_offset 8, -8
  20 0008 13040101 		addi	s0,sp,16
  21              		.cfi_def_cfa 8, 0
  22              		.loc 1 31 24 is_stmt 0
  23 000c 03348100 		ld	s0,8(sp)
  24              		.cfi_restore 8
  25              		.cfi_def_cfa 2, 16
  26 0010 13010101 		addi	sp,sp,16
  27              		.cfi_def_cfa_offset 0
GAS LISTING /tmp/ccZ0xtje.s 			page 2


  28 0014 67800000 		jr	ra
  29              		.cfi_endproc
  30              	.LFE0:
  32              		.text
  33              		.align	2
  34              		.globl	_ZN6Thread7WrapperEPv
  36              	_ZN6Thread7WrapperEPv:
  37              	.LFB39:
  38              		.file 2 "src/syscall_cpp.cpp"
   1:src/syscall_cpp.cpp **** //
   2:src/syscall_cpp.cpp **** // Created by os on 5/19/24.
   3:src/syscall_cpp.cpp **** //
   4:src/syscall_cpp.cpp **** 
   5:src/syscall_cpp.cpp **** #include "../h/syscall_cpp.hpp"
   6:src/syscall_cpp.cpp **** #include "../h/syscall_c.hpp"
   7:src/syscall_cpp.cpp **** #include "../h/printing.hpp"
   8:src/syscall_cpp.cpp **** #include "../h/tcb.hpp"
   9:src/syscall_cpp.cpp **** 
  10:src/syscall_cpp.cpp **** void* operator new(size_t size)
  11:src/syscall_cpp.cpp **** {
  12:src/syscall_cpp.cpp ****     void* address = mem_alloc(size);
  13:src/syscall_cpp.cpp ****     return address;
  14:src/syscall_cpp.cpp **** }
  15:src/syscall_cpp.cpp **** 
  16:src/syscall_cpp.cpp **** void* operator new[](size_t size)
  17:src/syscall_cpp.cpp **** {
  18:src/syscall_cpp.cpp ****     void* address = mem_alloc(size);
  19:src/syscall_cpp.cpp ****     return address;
  20:src/syscall_cpp.cpp **** }
  21:src/syscall_cpp.cpp **** 
  22:src/syscall_cpp.cpp **** void operator delete(void* address)
  23:src/syscall_cpp.cpp **** {
  24:src/syscall_cpp.cpp ****     mem_free(address);
  25:src/syscall_cpp.cpp **** }
  26:src/syscall_cpp.cpp **** 
  27:src/syscall_cpp.cpp **** void operator delete[](void* address)
  28:src/syscall_cpp.cpp **** {
  29:src/syscall_cpp.cpp ****     mem_free(address);
  30:src/syscall_cpp.cpp **** }
  31:src/syscall_cpp.cpp **** 
  32:src/syscall_cpp.cpp **** Thread::Thread(void (*body)(void *), void *arg)
  33:src/syscall_cpp.cpp **** {
  34:src/syscall_cpp.cpp ****     this->myHandle = nullptr;
  35:src/syscall_cpp.cpp ****     this->body = body;
  36:src/syscall_cpp.cpp ****     this->arg = arg;
  37:src/syscall_cpp.cpp **** }
  38:src/syscall_cpp.cpp **** 
  39:src/syscall_cpp.cpp **** Thread::~Thread()
  40:src/syscall_cpp.cpp **** {
  41:src/syscall_cpp.cpp ****     if(myHandle != nullptr)
  42:src/syscall_cpp.cpp ****     {
  43:src/syscall_cpp.cpp ****         delete this->myHandle;
  44:src/syscall_cpp.cpp ****         this->myHandle = nullptr;
  45:src/syscall_cpp.cpp ****     }
  46:src/syscall_cpp.cpp **** 
  47:src/syscall_cpp.cpp **** }
  48:src/syscall_cpp.cpp **** 
GAS LISTING /tmp/ccZ0xtje.s 			page 3


  49:src/syscall_cpp.cpp **** int Thread::start()
  50:src/syscall_cpp.cpp **** {
  51:src/syscall_cpp.cpp ****     if(this->myHandle == nullptr)
  52:src/syscall_cpp.cpp ****     {
  53:src/syscall_cpp.cpp ****         thread_create(&this->myHandle, this->body, this->arg);
  54:src/syscall_cpp.cpp ****         return 0;
  55:src/syscall_cpp.cpp ****     }
  56:src/syscall_cpp.cpp **** 
  57:src/syscall_cpp.cpp ****     return -1;
  58:src/syscall_cpp.cpp **** }
  59:src/syscall_cpp.cpp **** 
  60:src/syscall_cpp.cpp **** void Thread::dispatch()
  61:src/syscall_cpp.cpp **** {
  62:src/syscall_cpp.cpp ****     thread_dispatch();
  63:src/syscall_cpp.cpp **** }
  64:src/syscall_cpp.cpp **** 
  65:src/syscall_cpp.cpp **** Thread::Thread()
  66:src/syscall_cpp.cpp **** {
  67:src/syscall_cpp.cpp ****     this->myHandle = nullptr;
  68:src/syscall_cpp.cpp ****     this->body = &Wrapper;
  69:src/syscall_cpp.cpp ****     this->arg = this;
  70:src/syscall_cpp.cpp **** }
  71:src/syscall_cpp.cpp **** 
  72:src/syscall_cpp.cpp **** void Thread::Wrapper(void *thread)
  73:src/syscall_cpp.cpp **** {
  39              		.loc 2 73 1 is_stmt 1
  40              		.cfi_startproc
  41              	.LVL1:
  42 0000 130101FF 		addi	sp,sp,-16
  43              		.cfi_def_cfa_offset 16
  44 0004 23341100 		sd	ra,8(sp)
  45 0008 23308100 		sd	s0,0(sp)
  46              		.cfi_offset 1, -8
  47              		.cfi_offset 8, -16
  48 000c 13040101 		addi	s0,sp,16
  49              		.cfi_def_cfa 8, 0
  74:src/syscall_cpp.cpp ****     ((Thread*) thread) -> run();
  50              		.loc 2 74 5
  51              		.loc 2 74 31 is_stmt 0
  52 0010 83370500 		ld	a5,0(a0)
  53 0014 83B70701 		ld	a5,16(a5)
  54              		.loc 2 74 30
  55 0018 E7800700 		jalr	a5
  56              	.LVL2:
  75:src/syscall_cpp.cpp **** }
  57              		.loc 2 75 1
  58 001c 83308100 		ld	ra,8(sp)
  59              		.cfi_restore 1
  60 0020 03340100 		ld	s0,0(sp)
  61              		.cfi_restore 8
  62              		.cfi_def_cfa 2, 16
  63 0024 13010101 		addi	sp,sp,16
  64              		.cfi_def_cfa_offset 0
  65 0028 67800000 		jr	ra
  66              		.cfi_endproc
  67              	.LFE39:
  69              		.align	2
GAS LISTING /tmp/ccZ0xtje.s 			page 4


  70              		.globl	_ZN6ThreadD2Ev
  72              	_ZN6ThreadD2Ev:
  73              	.LFB31:
  39:src/syscall_cpp.cpp **** {
  74              		.loc 2 39 1 is_stmt 1
  75              		.cfi_startproc
  76              		.cfi_personality 0x9b,DW.ref.__gxx_personality_v0
  77              		.cfi_lsda 0x1b,.LLSDA31
  78              	.LVL3:
  79 002c 130101FE 		addi	sp,sp,-32
  80              		.cfi_def_cfa_offset 32
  81 0030 233C1100 		sd	ra,24(sp)
  82 0034 23388100 		sd	s0,16(sp)
  83 0038 23349100 		sd	s1,8(sp)
  84              		.cfi_offset 1, -8
  85              		.cfi_offset 8, -16
  86              		.cfi_offset 9, -24
  87 003c 13040102 		addi	s0,sp,32
  88              		.cfi_def_cfa 8, 0
  89              	.LBB6:
  39:src/syscall_cpp.cpp **** {
  90              		.loc 2 39 17 is_stmt 0
  91 0040 97070000 		lla	a5,_ZTV6Thread+16
  91      93870700 
  92 0048 2330F500 		sd	a5,0(a0)
  41:src/syscall_cpp.cpp ****     {
  93              		.loc 2 41 5 is_stmt 1
  41:src/syscall_cpp.cpp ****     {
  94              		.loc 2 41 8 is_stmt 0
  95 004c 83348500 		ld	s1,8(a0)
  41:src/syscall_cpp.cpp ****     {
  96              		.loc 2 41 5
  97 0050 638E0400 		beqz	s1,.L5
  43:src/syscall_cpp.cpp ****         this->myHandle = nullptr;
  98              		.loc 2 43 9 is_stmt 1
  99              	.LVL4:
 100              	.LBB7:
 101              	.LBB8:
 102              		.file 3 "src/../h/tcb.hpp"
   1:src/../h/tcb.hpp **** //
   2:src/../h/tcb.hpp **** // Created by os on 5/17/24.
   3:src/../h/tcb.hpp **** //
   4:src/../h/tcb.hpp **** 
   5:src/../h/tcb.hpp **** #ifndef PROJECT_BASE_TCB_HPP
   6:src/../h/tcb.hpp **** #define PROJECT_BASE_TCB_HPP
   7:src/../h/tcb.hpp **** 
   8:src/../h/tcb.hpp **** #include "../lib/hw.h"
   9:src/../h/tcb.hpp **** #include "scheduler.hpp"
  10:src/../h/tcb.hpp **** #include "../h/syscall_cpp.hpp"
  11:src/../h/tcb.hpp **** #include "../h/MemoryAllocator.hpp"
  12:src/../h/tcb.hpp **** #include "../h/MySemaphore.hpp"
  13:src/../h/tcb.hpp **** 
  14:src/../h/tcb.hpp **** // Thread Control Block
  15:src/../h/tcb.hpp **** class TCB
  16:src/../h/tcb.hpp **** {
  17:src/../h/tcb.hpp **** 
  18:src/../h/tcb.hpp **** public:
GAS LISTING /tmp/ccZ0xtje.s 			page 5


  19:src/../h/tcb.hpp **** 
  20:src/../h/tcb.hpp ****     ~TCB() { MemoryAllocator::mem_free(stack); }
 103              		.loc 3 20 14
 104              		.loc 3 20 39 is_stmt 0
 105 0054 03B50401 		ld	a0,16(s1)
 106              	.LVL5:
 107 0058 97000000 		call	_ZN15MemoryAllocator8mem_freeEPv@plt
 107      E7800000 
 108              	.LVL6:
 109              	.LBE8:
 110              	.LBE7:
  43:src/syscall_cpp.cpp ****         this->myHandle = nullptr;
 111              		.loc 2 43 22
 112 0060 13850400 		mv	a0,s1
 113 0064 97000000 		call	_ZN3TCBdlEPv@plt
 113      E7800000 
 114              	.LVL7:
  44:src/syscall_cpp.cpp ****     }
 115              		.loc 2 44 9 is_stmt 1
 116              	.L5:
 117              	.LBE6:
  47:src/syscall_cpp.cpp **** 
 118              		.loc 2 47 1 is_stmt 0
 119 006c 83308101 		ld	ra,24(sp)
 120              		.cfi_restore 1
 121 0070 03340101 		ld	s0,16(sp)
 122              		.cfi_restore 8
 123              		.cfi_def_cfa 2, 32
 124 0074 83348100 		ld	s1,8(sp)
 125              		.cfi_restore 9
 126 0078 13010102 		addi	sp,sp,32
 127              		.cfi_def_cfa_offset 0
 128 007c 67800000 		jr	ra
 129              		.cfi_endproc
 130              	.LFE31:
 131              		.globl	__gxx_personality_v0
 132              		.section	.gcc_except_table,"a",@progbits
 133              	.LLSDA31:
 134 0000 FF       		.byte	0xff
 135 0001 FF       		.byte	0xff
 136 0002 03       		.byte	0x3
 137 0003 00       		.byte	0
 138              		.text
 140              		.globl	_ZN6ThreadD1Ev
 141              		.set	_ZN6ThreadD1Ev,_ZN6ThreadD2Ev
 142              		.align	2
 143              		.globl	_ZN9SemaphoreD2Ev
 145              	_ZN9SemaphoreD2Ev:
 146              	.LFB46:
  76:src/syscall_cpp.cpp **** 
  77:src/syscall_cpp.cpp **** void Thread::send(char *message)
  78:src/syscall_cpp.cpp **** {
  79:src/syscall_cpp.cpp ****     ::send(this->myHandle, message);
  80:src/syscall_cpp.cpp **** }
  81:src/syscall_cpp.cpp **** 
  82:src/syscall_cpp.cpp **** char* Thread::receive()
  83:src/syscall_cpp.cpp **** {
GAS LISTING /tmp/ccZ0xtje.s 			page 6


  84:src/syscall_cpp.cpp ****     return ::receive();
  85:src/syscall_cpp.cpp **** }
  86:src/syscall_cpp.cpp **** 
  87:src/syscall_cpp.cpp **** 
  88:src/syscall_cpp.cpp **** Semaphore::Semaphore(unsigned int init)
  89:src/syscall_cpp.cpp **** {
  90:src/syscall_cpp.cpp ****     sem_open(&this->myHandle, init);
  91:src/syscall_cpp.cpp **** }
  92:src/syscall_cpp.cpp **** 
  93:src/syscall_cpp.cpp **** Semaphore::~Semaphore()
 147              		.loc 2 93 1 is_stmt 1
 148              		.cfi_startproc
 149              		.cfi_personality 0x9b,DW.ref.__gxx_personality_v0
 150              		.cfi_lsda 0x1b,.LLSDA46
 151              	.LVL8:
 152              	.LBB9:
 153              		.loc 2 93 23 is_stmt 0
 154 0080 97070000 		lla	a5,_ZTV9Semaphore+16
 154      93870700 
 155 0088 2330F500 		sd	a5,0(a0)
  94:src/syscall_cpp.cpp **** {
  95:src/syscall_cpp.cpp ****     if(this->myHandle != nullptr)
 156              		.loc 2 95 5 is_stmt 1
 157              		.loc 2 95 14 is_stmt 0
 158 008c 03358500 		ld	a0,8(a0)
 159              	.LVL9:
 160              		.loc 2 95 5
 161 0090 63060502 		beqz	a0,.L11
 162              	.LBE9:
  93:src/syscall_cpp.cpp **** {
 163              		.loc 2 93 1
 164 0094 130101FF 		addi	sp,sp,-16
 165              		.cfi_def_cfa_offset 16
 166 0098 23341100 		sd	ra,8(sp)
 167 009c 23308100 		sd	s0,0(sp)
 168              		.cfi_offset 1, -8
 169              		.cfi_offset 8, -16
 170 00a0 13040101 		addi	s0,sp,16
 171              		.cfi_def_cfa 8, 0
 172              	.LBB10:
  96:src/syscall_cpp.cpp ****     {
  97:src/syscall_cpp.cpp ****         sem_close(this->myHandle);
 173              		.loc 2 97 9 is_stmt 1
 174              		.loc 2 97 18 is_stmt 0
 175 00a4 97000000 		call	_Z9sem_closeP11MySemaphore@plt
 175      E7800000 
 176              	.LVL10:
 177              	.LBE10:
  98:src/syscall_cpp.cpp ****     }
  99:src/syscall_cpp.cpp **** }
 178              		.loc 2 99 1
 179 00ac 83308100 		ld	ra,8(sp)
 180              		.cfi_restore 1
 181 00b0 03340100 		ld	s0,0(sp)
 182              		.cfi_restore 8
 183              		.cfi_def_cfa 2, 16
 184 00b4 13010101 		addi	sp,sp,16
GAS LISTING /tmp/ccZ0xtje.s 			page 7


 185              		.cfi_def_cfa_offset 0
 186 00b8 67800000 		jr	ra
 187              	.L11:
 188 00bc 67800000 		ret
 189              		.cfi_endproc
 190              	.LFE46:
 191              		.section	.gcc_except_table
 192              	.LLSDA46:
 193 0004 FF       		.byte	0xff
 194 0005 FF       		.byte	0xff
 195 0006 03       		.byte	0x3
 196 0007 00       		.byte	0
 197              		.text
 199              		.globl	_ZN9SemaphoreD1Ev
 200              		.set	_ZN9SemaphoreD1Ev,_ZN9SemaphoreD2Ev
 201              		.align	2
 202              		.globl	_Znwm
 204              	_Znwm:
 205              	.LFB23:
  11:src/syscall_cpp.cpp ****     void* address = mem_alloc(size);
 206              		.loc 2 11 1 is_stmt 1
 207              		.cfi_startproc
 208              	.LVL11:
 209 00c0 130101FF 		addi	sp,sp,-16
 210              		.cfi_def_cfa_offset 16
 211 00c4 23341100 		sd	ra,8(sp)
 212 00c8 23308100 		sd	s0,0(sp)
 213              		.cfi_offset 1, -8
 214              		.cfi_offset 8, -16
 215 00cc 13040101 		addi	s0,sp,16
 216              		.cfi_def_cfa 8, 0
  12:src/syscall_cpp.cpp ****     return address;
 217              		.loc 2 12 5
  12:src/syscall_cpp.cpp ****     return address;
 218              		.loc 2 12 30 is_stmt 0
 219 00d0 97000000 		call	_Z9mem_allocm@plt
 219      E7800000 
 220              	.LVL12:
  13:src/syscall_cpp.cpp **** }
 221              		.loc 2 13 5 is_stmt 1
  14:src/syscall_cpp.cpp **** 
 222              		.loc 2 14 1 is_stmt 0
 223 00d8 83308100 		ld	ra,8(sp)
 224              		.cfi_restore 1
 225 00dc 03340100 		ld	s0,0(sp)
 226              		.cfi_restore 8
 227              		.cfi_def_cfa 2, 16
 228 00e0 13010101 		addi	sp,sp,16
 229              		.cfi_def_cfa_offset 0
 230 00e4 67800000 		jr	ra
 231              		.cfi_endproc
 232              	.LFE23:
 234              		.align	2
 235              		.globl	_Znam
 237              	_Znam:
 238              	.LFB24:
  17:src/syscall_cpp.cpp ****     void* address = mem_alloc(size);
GAS LISTING /tmp/ccZ0xtje.s 			page 8


 239              		.loc 2 17 1 is_stmt 1
 240              		.cfi_startproc
 241              	.LVL13:
 242 00e8 130101FF 		addi	sp,sp,-16
 243              		.cfi_def_cfa_offset 16
 244 00ec 23341100 		sd	ra,8(sp)
 245 00f0 23308100 		sd	s0,0(sp)
 246              		.cfi_offset 1, -8
 247              		.cfi_offset 8, -16
 248 00f4 13040101 		addi	s0,sp,16
 249              		.cfi_def_cfa 8, 0
  18:src/syscall_cpp.cpp ****     return address;
 250              		.loc 2 18 5
  18:src/syscall_cpp.cpp ****     return address;
 251              		.loc 2 18 30 is_stmt 0
 252 00f8 97000000 		call	_Z9mem_allocm@plt
 252      E7800000 
 253              	.LVL14:
  19:src/syscall_cpp.cpp **** }
 254              		.loc 2 19 5 is_stmt 1
  20:src/syscall_cpp.cpp **** 
 255              		.loc 2 20 1 is_stmt 0
 256 0100 83308100 		ld	ra,8(sp)
 257              		.cfi_restore 1
 258 0104 03340100 		ld	s0,0(sp)
 259              		.cfi_restore 8
 260              		.cfi_def_cfa 2, 16
 261 0108 13010101 		addi	sp,sp,16
 262              		.cfi_def_cfa_offset 0
 263 010c 67800000 		jr	ra
 264              		.cfi_endproc
 265              	.LFE24:
 267              		.align	2
 268              		.globl	_ZdlPv
 270              	_ZdlPv:
 271              	.LFB25:
  23:src/syscall_cpp.cpp ****     mem_free(address);
 272              		.loc 2 23 1 is_stmt 1
 273              		.cfi_startproc
 274              	.LVL15:
 275 0110 130101FF 		addi	sp,sp,-16
 276              		.cfi_def_cfa_offset 16
 277 0114 23341100 		sd	ra,8(sp)
 278 0118 23308100 		sd	s0,0(sp)
 279              		.cfi_offset 1, -8
 280              		.cfi_offset 8, -16
 281 011c 13040101 		addi	s0,sp,16
 282              		.cfi_def_cfa 8, 0
  24:src/syscall_cpp.cpp **** }
 283              		.loc 2 24 5
  24:src/syscall_cpp.cpp **** }
 284              		.loc 2 24 13 is_stmt 0
 285 0120 97000000 		call	_Z8mem_freePv@plt
 285      E7800000 
 286              	.LVL16:
  25:src/syscall_cpp.cpp **** 
 287              		.loc 2 25 1
GAS LISTING /tmp/ccZ0xtje.s 			page 9


 288 0128 83308100 		ld	ra,8(sp)
 289              		.cfi_restore 1
 290 012c 03340100 		ld	s0,0(sp)
 291              		.cfi_restore 8
 292              		.cfi_def_cfa 2, 16
 293 0130 13010101 		addi	sp,sp,16
 294              		.cfi_def_cfa_offset 0
 295 0134 67800000 		jr	ra
 296              		.cfi_endproc
 297              	.LFE25:
 299              		.align	2
 300              		.globl	_ZN6ThreadD0Ev
 302              	_ZN6ThreadD0Ev:
 303              	.LFB33:
  39:src/syscall_cpp.cpp **** {
 304              		.loc 2 39 1 is_stmt 1
 305              		.cfi_startproc
 306              	.LVL17:
 307 0138 130101FE 		addi	sp,sp,-32
 308              		.cfi_def_cfa_offset 32
 309 013c 233C1100 		sd	ra,24(sp)
 310 0140 23388100 		sd	s0,16(sp)
 311 0144 23349100 		sd	s1,8(sp)
 312              		.cfi_offset 1, -8
 313              		.cfi_offset 8, -16
 314              		.cfi_offset 9, -24
 315 0148 13040102 		addi	s0,sp,32
 316              		.cfi_def_cfa 8, 0
 317 014c 93040500 		mv	s1,a0
  47:src/syscall_cpp.cpp **** 
 318              		.loc 2 47 1 is_stmt 0
 319 0150 97000000 		call	_ZN6ThreadD1Ev
 319      E7800000 
 320              	.LVL18:
 321 0158 13850400 		mv	a0,s1
 322 015c 97000000 		call	_ZdlPv
 322      E7800000 
 323              	.LVL19:
 324 0164 83308101 		ld	ra,24(sp)
 325              		.cfi_restore 1
 326 0168 03340101 		ld	s0,16(sp)
 327              		.cfi_restore 8
 328              		.cfi_def_cfa 2, 32
 329 016c 83348100 		ld	s1,8(sp)
 330              		.cfi_restore 9
 331              	.LVL20:
 332 0170 13010102 		addi	sp,sp,32
 333              		.cfi_def_cfa_offset 0
 334 0174 67800000 		jr	ra
 335              		.cfi_endproc
 336              	.LFE33:
 338              		.align	2
 339              		.globl	_ZN9SemaphoreD0Ev
 341              	_ZN9SemaphoreD0Ev:
 342              	.LFB48:
  93:src/syscall_cpp.cpp **** {
 343              		.loc 2 93 1 is_stmt 1
GAS LISTING /tmp/ccZ0xtje.s 			page 10


 344              		.cfi_startproc
 345              	.LVL21:
 346 0178 130101FE 		addi	sp,sp,-32
 347              		.cfi_def_cfa_offset 32
 348 017c 233C1100 		sd	ra,24(sp)
 349 0180 23388100 		sd	s0,16(sp)
 350 0184 23349100 		sd	s1,8(sp)
 351              		.cfi_offset 1, -8
 352              		.cfi_offset 8, -16
 353              		.cfi_offset 9, -24
 354 0188 13040102 		addi	s0,sp,32
 355              		.cfi_def_cfa 8, 0
 356 018c 93040500 		mv	s1,a0
 357              		.loc 2 99 1 is_stmt 0
 358 0190 97000000 		call	_ZN9SemaphoreD1Ev
 358      E7800000 
 359              	.LVL22:
 360 0198 13850400 		mv	a0,s1
 361 019c 97000000 		call	_ZdlPv
 361      E7800000 
 362              	.LVL23:
 363 01a4 83308101 		ld	ra,24(sp)
 364              		.cfi_restore 1
 365 01a8 03340101 		ld	s0,16(sp)
 366              		.cfi_restore 8
 367              		.cfi_def_cfa 2, 32
 368 01ac 83348100 		ld	s1,8(sp)
 369              		.cfi_restore 9
 370              	.LVL24:
 371 01b0 13010102 		addi	sp,sp,32
 372              		.cfi_def_cfa_offset 0
 373 01b4 67800000 		jr	ra
 374              		.cfi_endproc
 375              	.LFE48:
 377              		.align	2
 378              		.globl	_ZdaPv
 380              	_ZdaPv:
 381              	.LFB26:
  28:src/syscall_cpp.cpp ****     mem_free(address);
 382              		.loc 2 28 1 is_stmt 1
 383              		.cfi_startproc
 384              	.LVL25:
 385 01b8 130101FF 		addi	sp,sp,-16
 386              		.cfi_def_cfa_offset 16
 387 01bc 23341100 		sd	ra,8(sp)
 388 01c0 23308100 		sd	s0,0(sp)
 389              		.cfi_offset 1, -8
 390              		.cfi_offset 8, -16
 391 01c4 13040101 		addi	s0,sp,16
 392              		.cfi_def_cfa 8, 0
  29:src/syscall_cpp.cpp **** }
 393              		.loc 2 29 5
  29:src/syscall_cpp.cpp **** }
 394              		.loc 2 29 13 is_stmt 0
 395 01c8 97000000 		call	_Z8mem_freePv@plt
 395      E7800000 
 396              	.LVL26:
GAS LISTING /tmp/ccZ0xtje.s 			page 11


  30:src/syscall_cpp.cpp **** 
 397              		.loc 2 30 1
 398 01d0 83308100 		ld	ra,8(sp)
 399              		.cfi_restore 1
 400 01d4 03340100 		ld	s0,0(sp)
 401              		.cfi_restore 8
 402              		.cfi_def_cfa 2, 16
 403 01d8 13010101 		addi	sp,sp,16
 404              		.cfi_def_cfa_offset 0
 405 01dc 67800000 		jr	ra
 406              		.cfi_endproc
 407              	.LFE26:
 409              		.align	2
 410              		.globl	_ZN6ThreadC2EPFvPvES0_
 412              	_ZN6ThreadC2EPFvPvES0_:
 413              	.LFB28:
  32:src/syscall_cpp.cpp **** {
 414              		.loc 2 32 1 is_stmt 1
 415              		.cfi_startproc
 416              	.LVL27:
 417 01e0 130101FF 		addi	sp,sp,-16
 418              		.cfi_def_cfa_offset 16
 419 01e4 23348100 		sd	s0,8(sp)
 420              		.cfi_offset 8, -8
 421 01e8 13040101 		addi	s0,sp,16
 422              		.cfi_def_cfa 8, 0
 423              	.LBB11:
  32:src/syscall_cpp.cpp **** {
 424              		.loc 2 32 47 is_stmt 0
 425 01ec 97070000 		lla	a5,_ZTV6Thread+16
 425      93870700 
 426 01f4 2330F500 		sd	a5,0(a0)
  34:src/syscall_cpp.cpp ****     this->body = body;
 427              		.loc 2 34 5 is_stmt 1
  34:src/syscall_cpp.cpp ****     this->body = body;
 428              		.loc 2 34 20 is_stmt 0
 429 01f8 23340500 		sd	zero,8(a0)
  35:src/syscall_cpp.cpp ****     this->arg = arg;
 430              		.loc 2 35 5 is_stmt 1
  35:src/syscall_cpp.cpp ****     this->arg = arg;
 431              		.loc 2 35 16 is_stmt 0
 432 01fc 2338B500 		sd	a1,16(a0)
  36:src/syscall_cpp.cpp **** }
 433              		.loc 2 36 5 is_stmt 1
  36:src/syscall_cpp.cpp **** }
 434              		.loc 2 36 15 is_stmt 0
 435 0200 233CC500 		sd	a2,24(a0)
 436              	.LBE11:
  37:src/syscall_cpp.cpp **** 
 437              		.loc 2 37 1
 438 0204 03348100 		ld	s0,8(sp)
 439              		.cfi_restore 8
 440              		.cfi_def_cfa 2, 16
 441 0208 13010101 		addi	sp,sp,16
 442              		.cfi_def_cfa_offset 0
 443 020c 67800000 		jr	ra
 444              		.cfi_endproc
GAS LISTING /tmp/ccZ0xtje.s 			page 12


 445              	.LFE28:
 447              		.globl	_ZN6ThreadC1EPFvPvES0_
 448              		.set	_ZN6ThreadC1EPFvPvES0_,_ZN6ThreadC2EPFvPvES0_
 449              		.align	2
 450              		.globl	_ZN6Thread5startEv
 452              	_ZN6Thread5startEv:
 453              	.LFB34:
  50:src/syscall_cpp.cpp ****     if(this->myHandle == nullptr)
 454              		.loc 2 50 1 is_stmt 1
 455              		.cfi_startproc
 456              	.LVL28:
  51:src/syscall_cpp.cpp ****     {
 457              		.loc 2 51 5
  51:src/syscall_cpp.cpp ****     {
 458              		.loc 2 51 14 is_stmt 0
 459 0210 83378500 		ld	a5,8(a0)
  51:src/syscall_cpp.cpp ****     {
 460              		.loc 2 51 5
 461 0214 639E0702 		bnez	a5,.L30
  50:src/syscall_cpp.cpp ****     if(this->myHandle == nullptr)
 462              		.loc 2 50 1
 463 0218 130101FF 		addi	sp,sp,-16
 464              		.cfi_def_cfa_offset 16
 465 021c 23341100 		sd	ra,8(sp)
 466 0220 23308100 		sd	s0,0(sp)
 467              		.cfi_offset 1, -8
 468              		.cfi_offset 8, -16
 469 0224 13040101 		addi	s0,sp,16
 470              		.cfi_def_cfa 8, 0
  53:src/syscall_cpp.cpp ****         return 0;
 471              		.loc 2 53 9 is_stmt 1
  53:src/syscall_cpp.cpp ****         return 0;
 472              		.loc 2 53 22 is_stmt 0
 473 0228 03368501 		ld	a2,24(a0)
 474 022c 83350501 		ld	a1,16(a0)
 475 0230 13058500 		addi	a0,a0,8
 476              	.LVL29:
 477 0234 97000000 		call	_Z13thread_createPP3TCBPFvPvES2_@plt
 477      E7800000 
 478              	.LVL30:
  54:src/syscall_cpp.cpp ****     }
 479              		.loc 2 54 9 is_stmt 1
  54:src/syscall_cpp.cpp ****     }
 480              		.loc 2 54 16 is_stmt 0
 481 023c 13050000 		li	a0,0
  58:src/syscall_cpp.cpp **** 
 482              		.loc 2 58 1
 483 0240 83308100 		ld	ra,8(sp)
 484              		.cfi_restore 1
 485 0244 03340100 		ld	s0,0(sp)
 486              		.cfi_restore 8
 487              		.cfi_def_cfa 2, 16
 488 0248 13010101 		addi	sp,sp,16
 489              		.cfi_def_cfa_offset 0
 490 024c 67800000 		jr	ra
 491              	.LVL31:
 492              	.L30:
GAS LISTING /tmp/ccZ0xtje.s 			page 13


  57:src/syscall_cpp.cpp **** }
 493              		.loc 2 57 13
 494 0250 1305F0FF 		li	a0,-1
 495              	.LVL32:
  58:src/syscall_cpp.cpp **** 
 496              		.loc 2 58 1
 497 0254 67800000 		ret
 498              		.cfi_endproc
 499              	.LFE34:
 501              		.align	2
 502              		.globl	_ZN6Thread8dispatchEv
 504              	_ZN6Thread8dispatchEv:
 505              	.LFB35:
  61:src/syscall_cpp.cpp ****     thread_dispatch();
 506              		.loc 2 61 1 is_stmt 1
 507              		.cfi_startproc
 508 0258 130101FF 		addi	sp,sp,-16
 509              		.cfi_def_cfa_offset 16
 510 025c 23341100 		sd	ra,8(sp)
 511 0260 23308100 		sd	s0,0(sp)
 512              		.cfi_offset 1, -8
 513              		.cfi_offset 8, -16
 514 0264 13040101 		addi	s0,sp,16
 515              		.cfi_def_cfa 8, 0
  62:src/syscall_cpp.cpp **** }
 516              		.loc 2 62 5
  62:src/syscall_cpp.cpp **** }
 517              		.loc 2 62 20 is_stmt 0
 518 0268 97000000 		call	_Z15thread_dispatchv@plt
 518      E7800000 
 519              	.LVL33:
  63:src/syscall_cpp.cpp **** 
 520              		.loc 2 63 1
 521 0270 83308100 		ld	ra,8(sp)
 522              		.cfi_restore 1
 523 0274 03340100 		ld	s0,0(sp)
 524              		.cfi_restore 8
 525              		.cfi_def_cfa 2, 16
 526 0278 13010101 		addi	sp,sp,16
 527              		.cfi_def_cfa_offset 0
 528 027c 67800000 		jr	ra
 529              		.cfi_endproc
 530              	.LFE35:
 532              		.align	2
 533              		.globl	_ZN6ThreadC2Ev
 535              	_ZN6ThreadC2Ev:
 536              	.LFB37:
  65:src/syscall_cpp.cpp **** {
 537              		.loc 2 65 1 is_stmt 1
 538              		.cfi_startproc
 539              	.LVL34:
 540 0280 130101FF 		addi	sp,sp,-16
 541              		.cfi_def_cfa_offset 16
 542 0284 23348100 		sd	s0,8(sp)
 543              		.cfi_offset 8, -8
 544 0288 13040101 		addi	s0,sp,16
 545              		.cfi_def_cfa 8, 0
GAS LISTING /tmp/ccZ0xtje.s 			page 14


 546              	.LBB12:
  65:src/syscall_cpp.cpp **** {
 547              		.loc 2 65 16 is_stmt 0
 548 028c 97070000 		lla	a5,_ZTV6Thread+16
 548      93870700 
 549 0294 2330F500 		sd	a5,0(a0)
  67:src/syscall_cpp.cpp ****     this->body = &Wrapper;
 550              		.loc 2 67 5 is_stmt 1
  67:src/syscall_cpp.cpp ****     this->body = &Wrapper;
 551              		.loc 2 67 20 is_stmt 0
 552 0298 23340500 		sd	zero,8(a0)
  68:src/syscall_cpp.cpp ****     this->arg = this;
 553              		.loc 2 68 5 is_stmt 1
  68:src/syscall_cpp.cpp ****     this->arg = this;
 554              		.loc 2 68 16 is_stmt 0
 555 029c 97070000 		lla	a5,_ZN6Thread7WrapperEPv
 555      93870700 
 556 02a4 2338F500 		sd	a5,16(a0)
  69:src/syscall_cpp.cpp **** }
 557              		.loc 2 69 5 is_stmt 1
  69:src/syscall_cpp.cpp **** }
 558              		.loc 2 69 15 is_stmt 0
 559 02a8 233CA500 		sd	a0,24(a0)
 560              	.LBE12:
  70:src/syscall_cpp.cpp **** 
 561              		.loc 2 70 1
 562 02ac 03348100 		ld	s0,8(sp)
 563              		.cfi_restore 8
 564              		.cfi_def_cfa 2, 16
 565 02b0 13010101 		addi	sp,sp,16
 566              		.cfi_def_cfa_offset 0
 567 02b4 67800000 		jr	ra
 568              		.cfi_endproc
 569              	.LFE37:
 571              		.globl	_ZN6ThreadC1Ev
 572              		.set	_ZN6ThreadC1Ev,_ZN6ThreadC2Ev
 573              		.align	2
 574              		.globl	_ZN6Thread4sendEPc
 576              	_ZN6Thread4sendEPc:
 577              	.LFB40:
  78:src/syscall_cpp.cpp ****     ::send(this->myHandle, message);
 578              		.loc 2 78 1 is_stmt 1
 579              		.cfi_startproc
 580              	.LVL35:
 581 02b8 130101FF 		addi	sp,sp,-16
 582              		.cfi_def_cfa_offset 16
 583 02bc 23341100 		sd	ra,8(sp)
 584 02c0 23308100 		sd	s0,0(sp)
 585              		.cfi_offset 1, -8
 586              		.cfi_offset 8, -16
 587 02c4 13040101 		addi	s0,sp,16
 588              		.cfi_def_cfa 8, 0
  79:src/syscall_cpp.cpp **** }
 589              		.loc 2 79 5
  79:src/syscall_cpp.cpp **** }
 590              		.loc 2 79 11 is_stmt 0
 591 02c8 03358500 		ld	a0,8(a0)
GAS LISTING /tmp/ccZ0xtje.s 			page 15


 592              	.LVL36:
 593 02cc 97000000 		call	_Z4sendP3TCBPc@plt
 593      E7800000 
 594              	.LVL37:
  80:src/syscall_cpp.cpp **** 
 595              		.loc 2 80 1
 596 02d4 83308100 		ld	ra,8(sp)
 597              		.cfi_restore 1
 598 02d8 03340100 		ld	s0,0(sp)
 599              		.cfi_restore 8
 600              		.cfi_def_cfa 2, 16
 601 02dc 13010101 		addi	sp,sp,16
 602              		.cfi_def_cfa_offset 0
 603 02e0 67800000 		jr	ra
 604              		.cfi_endproc
 605              	.LFE40:
 607              		.align	2
 608              		.globl	_ZN6Thread7receiveEv
 610              	_ZN6Thread7receiveEv:
 611              	.LFB41:
  83:src/syscall_cpp.cpp ****     return ::receive();
 612              		.loc 2 83 1 is_stmt 1
 613              		.cfi_startproc
 614              	.LVL38:
 615 02e4 130101FF 		addi	sp,sp,-16
 616              		.cfi_def_cfa_offset 16
 617 02e8 23341100 		sd	ra,8(sp)
 618 02ec 23308100 		sd	s0,0(sp)
 619              		.cfi_offset 1, -8
 620              		.cfi_offset 8, -16
 621 02f0 13040101 		addi	s0,sp,16
 622              		.cfi_def_cfa 8, 0
  84:src/syscall_cpp.cpp **** }
 623              		.loc 2 84 5
  84:src/syscall_cpp.cpp **** }
 624              		.loc 2 84 21 is_stmt 0
 625 02f4 97000000 		call	_Z7receivev@plt
 625      E7800000 
 626              	.LVL39:
  85:src/syscall_cpp.cpp **** 
 627              		.loc 2 85 1
 628 02fc 83308100 		ld	ra,8(sp)
 629              		.cfi_restore 1
 630 0300 03340100 		ld	s0,0(sp)
 631              		.cfi_restore 8
 632              		.cfi_def_cfa 2, 16
 633 0304 13010101 		addi	sp,sp,16
 634              		.cfi_def_cfa_offset 0
 635 0308 67800000 		jr	ra
 636              		.cfi_endproc
 637              	.LFE41:
 639              		.align	2
 640              		.globl	_ZN9SemaphoreC2Ej
 642              	_ZN9SemaphoreC2Ej:
 643              	.LFB43:
  88:src/syscall_cpp.cpp **** {
 644              		.loc 2 88 1 is_stmt 1
GAS LISTING /tmp/ccZ0xtje.s 			page 16


 645              		.cfi_startproc
 646              	.LVL40:
 647 030c 130101FF 		addi	sp,sp,-16
 648              		.cfi_def_cfa_offset 16
 649 0310 23341100 		sd	ra,8(sp)
 650 0314 23308100 		sd	s0,0(sp)
 651              		.cfi_offset 1, -8
 652              		.cfi_offset 8, -16
 653 0318 13040101 		addi	s0,sp,16
 654              		.cfi_def_cfa 8, 0
 655              	.LBB13:
  88:src/syscall_cpp.cpp **** {
 656              		.loc 2 88 39 is_stmt 0
 657 031c 97070000 		lla	a5,_ZTV9Semaphore+16
 657      93870700 
 658 0324 2330F500 		sd	a5,0(a0)
  90:src/syscall_cpp.cpp **** }
 659              		.loc 2 90 5 is_stmt 1
  90:src/syscall_cpp.cpp **** }
 660              		.loc 2 90 13 is_stmt 0
 661 0328 13058500 		addi	a0,a0,8
 662              	.LVL41:
 663 032c 97000000 		call	_Z8sem_openPP11MySemaphorej@plt
 663      E7800000 
 664              	.LVL42:
 665              	.LBE13:
  91:src/syscall_cpp.cpp **** 
 666              		.loc 2 91 1
 667 0334 83308100 		ld	ra,8(sp)
 668              		.cfi_restore 1
 669 0338 03340100 		ld	s0,0(sp)
 670              		.cfi_restore 8
 671              		.cfi_def_cfa 2, 16
 672 033c 13010101 		addi	sp,sp,16
 673              		.cfi_def_cfa_offset 0
 674 0340 67800000 		jr	ra
 675              		.cfi_endproc
 676              	.LFE43:
 678              		.globl	_ZN9SemaphoreC1Ej
 679              		.set	_ZN9SemaphoreC1Ej,_ZN9SemaphoreC2Ej
 680              		.align	2
 681              		.globl	_ZN9Semaphore4waitEv
 683              	_ZN9Semaphore4waitEv:
 684              	.LFB49:
 100:src/syscall_cpp.cpp **** 
 101:src/syscall_cpp.cpp **** int Semaphore::wait()
 102:src/syscall_cpp.cpp **** {
 685              		.loc 2 102 1 is_stmt 1
 686              		.cfi_startproc
 687              	.LVL43:
 103:src/syscall_cpp.cpp ****     if(this->myHandle != nullptr)
 688              		.loc 2 103 5
 689              		.loc 2 103 14 is_stmt 0
 690 0344 03358500 		ld	a0,8(a0)
 691              	.LVL44:
 692              		.loc 2 103 5
 693 0348 63080502 		beqz	a0,.L47
GAS LISTING /tmp/ccZ0xtje.s 			page 17


 102:src/syscall_cpp.cpp ****     if(this->myHandle != nullptr)
 694              		.loc 2 102 1
 695 034c 130101FF 		addi	sp,sp,-16
 696              		.cfi_def_cfa_offset 16
 697 0350 23341100 		sd	ra,8(sp)
 698 0354 23308100 		sd	s0,0(sp)
 699              		.cfi_offset 1, -8
 700              		.cfi_offset 8, -16
 701 0358 13040101 		addi	s0,sp,16
 702              		.cfi_def_cfa 8, 0
 104:src/syscall_cpp.cpp ****     {
 105:src/syscall_cpp.cpp ****         sem_wait(this->myHandle);
 703              		.loc 2 105 9 is_stmt 1
 704              		.loc 2 105 17 is_stmt 0
 705 035c 97000000 		call	_Z8sem_waitP11MySemaphore@plt
 705      E7800000 
 706              	.LVL45:
 106:src/syscall_cpp.cpp ****         return 0;
 707              		.loc 2 106 9 is_stmt 1
 708              		.loc 2 106 16 is_stmt 0
 709 0364 13050000 		li	a0,0
 107:src/syscall_cpp.cpp ****     }
 108:src/syscall_cpp.cpp **** 
 109:src/syscall_cpp.cpp ****     return -1;
 110:src/syscall_cpp.cpp **** }
 710              		.loc 2 110 1
 711 0368 83308100 		ld	ra,8(sp)
 712              		.cfi_restore 1
 713 036c 03340100 		ld	s0,0(sp)
 714              		.cfi_restore 8
 715              		.cfi_def_cfa 2, 16
 716 0370 13010101 		addi	sp,sp,16
 717              		.cfi_def_cfa_offset 0
 718 0374 67800000 		jr	ra
 719              	.L47:
 109:src/syscall_cpp.cpp **** }
 720              		.loc 2 109 13
 721 0378 1305F0FF 		li	a0,-1
 722              		.loc 2 110 1
 723 037c 67800000 		ret
 724              		.cfi_endproc
 725              	.LFE49:
 727              		.align	2
 728              		.globl	_ZN9Semaphore6signalEv
 730              	_ZN9Semaphore6signalEv:
 731              	.LFB50:
 111:src/syscall_cpp.cpp **** 
 112:src/syscall_cpp.cpp **** int Semaphore::signal()
 113:src/syscall_cpp.cpp **** {
 732              		.loc 2 113 1 is_stmt 1
 733              		.cfi_startproc
 734              	.LVL46:
 114:src/syscall_cpp.cpp ****     if(this->myHandle != nullptr)
 735              		.loc 2 114 5
 736              		.loc 2 114 14 is_stmt 0
 737 0380 03358500 		ld	a0,8(a0)
 738              	.LVL47:
GAS LISTING /tmp/ccZ0xtje.s 			page 18


 739              		.loc 2 114 5
 740 0384 63080502 		beqz	a0,.L54
 113:src/syscall_cpp.cpp ****     if(this->myHandle != nullptr)
 741              		.loc 2 113 1
 742 0388 130101FF 		addi	sp,sp,-16
 743              		.cfi_def_cfa_offset 16
 744 038c 23341100 		sd	ra,8(sp)
 745 0390 23308100 		sd	s0,0(sp)
 746              		.cfi_offset 1, -8
 747              		.cfi_offset 8, -16
 748 0394 13040101 		addi	s0,sp,16
 749              		.cfi_def_cfa 8, 0
 115:src/syscall_cpp.cpp ****     {
 116:src/syscall_cpp.cpp ****         sem_signal(this->myHandle);
 750              		.loc 2 116 9 is_stmt 1
 751              		.loc 2 116 19 is_stmt 0
 752 0398 97000000 		call	_Z10sem_signalP11MySemaphore@plt
 752      E7800000 
 753              	.LVL48:
 117:src/syscall_cpp.cpp ****         return 0;
 754              		.loc 2 117 9 is_stmt 1
 755              		.loc 2 117 16 is_stmt 0
 756 03a0 13050000 		li	a0,0
 118:src/syscall_cpp.cpp ****     }
 119:src/syscall_cpp.cpp **** 
 120:src/syscall_cpp.cpp ****     return -1;
 121:src/syscall_cpp.cpp **** }
 757              		.loc 2 121 1
 758 03a4 83308100 		ld	ra,8(sp)
 759              		.cfi_restore 1
 760 03a8 03340100 		ld	s0,0(sp)
 761              		.cfi_restore 8
 762              		.cfi_def_cfa 2, 16
 763 03ac 13010101 		addi	sp,sp,16
 764              		.cfi_def_cfa_offset 0
 765 03b0 67800000 		jr	ra
 766              	.L54:
 120:src/syscall_cpp.cpp **** }
 767              		.loc 2 120 13
 768 03b4 1305F0FF 		li	a0,-1
 769              		.loc 2 121 1
 770 03b8 67800000 		ret
 771              		.cfi_endproc
 772              	.LFE50:
 774              		.align	2
 775              		.globl	_ZN9Semaphore7tryWaitEv
 777              	_ZN9Semaphore7tryWaitEv:
 778              	.LFB51:
 122:src/syscall_cpp.cpp **** 
 123:src/syscall_cpp.cpp **** int Semaphore::tryWait()
 124:src/syscall_cpp.cpp **** {
 779              		.loc 2 124 1 is_stmt 1
 780              		.cfi_startproc
 781              	.LVL49:
 125:src/syscall_cpp.cpp ****     if(this->myHandle != nullptr)
 782              		.loc 2 125 5
 783              		.loc 2 125 14 is_stmt 0
GAS LISTING /tmp/ccZ0xtje.s 			page 19


 784 03bc 03358500 		ld	a0,8(a0)
 785              	.LVL50:
 786              		.loc 2 125 5
 787 03c0 63080502 		beqz	a0,.L61
 124:src/syscall_cpp.cpp ****     if(this->myHandle != nullptr)
 788              		.loc 2 124 1
 789 03c4 130101FF 		addi	sp,sp,-16
 790              		.cfi_def_cfa_offset 16
 791 03c8 23341100 		sd	ra,8(sp)
 792 03cc 23308100 		sd	s0,0(sp)
 793              		.cfi_offset 1, -8
 794              		.cfi_offset 8, -16
 795 03d0 13040101 		addi	s0,sp,16
 796              		.cfi_def_cfa 8, 0
 126:src/syscall_cpp.cpp ****     {
 127:src/syscall_cpp.cpp ****         sem_trywait(this->myHandle);
 797              		.loc 2 127 9 is_stmt 1
 798              		.loc 2 127 20 is_stmt 0
 799 03d4 97000000 		call	_Z11sem_trywaitP11MySemaphore@plt
 799      E7800000 
 800              	.LVL51:
 128:src/syscall_cpp.cpp ****         return 0;
 801              		.loc 2 128 9 is_stmt 1
 802              		.loc 2 128 16 is_stmt 0
 803 03dc 13050000 		li	a0,0
 129:src/syscall_cpp.cpp ****     }
 130:src/syscall_cpp.cpp **** 
 131:src/syscall_cpp.cpp ****     return -1;
 132:src/syscall_cpp.cpp **** }
 804              		.loc 2 132 1
 805 03e0 83308100 		ld	ra,8(sp)
 806              		.cfi_restore 1
 807 03e4 03340100 		ld	s0,0(sp)
 808              		.cfi_restore 8
 809              		.cfi_def_cfa 2, 16
 810 03e8 13010101 		addi	sp,sp,16
 811              		.cfi_def_cfa_offset 0
 812 03ec 67800000 		jr	ra
 813              	.L61:
 131:src/syscall_cpp.cpp **** }
 814              		.loc 2 131 13
 815 03f0 1305F0FF 		li	a0,-1
 816              		.loc 2 132 1
 817 03f4 67800000 		ret
 818              		.cfi_endproc
 819              	.LFE51:
 821              		.align	2
 822              		.globl	_ZN7Console4getcEv
 824              	_ZN7Console4getcEv:
 825              	.LFB52:
 133:src/syscall_cpp.cpp **** 
 134:src/syscall_cpp.cpp **** 
 135:src/syscall_cpp.cpp **** char Console::getc()
 136:src/syscall_cpp.cpp **** {
 826              		.loc 2 136 1 is_stmt 1
 827              		.cfi_startproc
 828 03f8 130101FF 		addi	sp,sp,-16
GAS LISTING /tmp/ccZ0xtje.s 			page 20


 829              		.cfi_def_cfa_offset 16
 830 03fc 23341100 		sd	ra,8(sp)
 831 0400 23308100 		sd	s0,0(sp)
 832              		.cfi_offset 1, -8
 833              		.cfi_offset 8, -16
 834 0404 13040101 		addi	s0,sp,16
 835              		.cfi_def_cfa 8, 0
 137:src/syscall_cpp.cpp ****     return ::getc();
 836              		.loc 2 137 5
 837              		.loc 2 137 18 is_stmt 0
 838 0408 97000000 		call	_Z4getcv@plt
 838      E7800000 
 839              	.LVL52:
 138:src/syscall_cpp.cpp **** }
 840              		.loc 2 138 1
 841 0410 83308100 		ld	ra,8(sp)
 842              		.cfi_restore 1
 843 0414 03340100 		ld	s0,0(sp)
 844              		.cfi_restore 8
 845              		.cfi_def_cfa 2, 16
 846 0418 13010101 		addi	sp,sp,16
 847              		.cfi_def_cfa_offset 0
 848 041c 67800000 		jr	ra
 849              		.cfi_endproc
 850              	.LFE52:
 852              		.align	2
 853              		.globl	_ZN7Console4putcEc
 855              	_ZN7Console4putcEc:
 856              	.LFB53:
 139:src/syscall_cpp.cpp **** 
 140:src/syscall_cpp.cpp **** void Console::putc(char character)
 141:src/syscall_cpp.cpp **** {
 857              		.loc 2 141 1 is_stmt 1
 858              		.cfi_startproc
 859              	.LVL53:
 860 0420 130101FF 		addi	sp,sp,-16
 861              		.cfi_def_cfa_offset 16
 862 0424 23341100 		sd	ra,8(sp)
 863 0428 23308100 		sd	s0,0(sp)
 864              		.cfi_offset 1, -8
 865              		.cfi_offset 8, -16
 866 042c 13040101 		addi	s0,sp,16
 867              		.cfi_def_cfa 8, 0
 142:src/syscall_cpp.cpp ****     ::putc(character);
 868              		.loc 2 142 5
 869              		.loc 2 142 11 is_stmt 0
 870 0430 97000000 		call	_Z4putcc@plt
 870      E7800000 
 871              	.LVL54:
 143:src/syscall_cpp.cpp **** }...
 872              		.loc 2 143 1
 873 0438 83308100 		ld	ra,8(sp)
 874              		.cfi_restore 1
 875 043c 03340100 		ld	s0,0(sp)
 876              		.cfi_restore 8
 877              		.cfi_def_cfa 2, 16
 878 0440 13010101 		addi	sp,sp,16
GAS LISTING /tmp/ccZ0xtje.s 			page 21


 879              		.cfi_def_cfa_offset 0
 880 0444 67800000 		jr	ra
 881              		.cfi_endproc
 882              	.LFE53:
 884              		.weak	_ZTV6Thread
 885              		.section	.data.rel.ro.local._ZTV6Thread,"awG",@progbits,_ZTV6Thread,comdat
 886              		.align	3
 889              	_ZTV6Thread:
 890 0000 00000000 		.dword	0
 890      00000000 
 891 0008 00000000 		.dword	0
 891      00000000 
 892 0010 00000000 		.dword	_ZN6ThreadD1Ev
 892      00000000 
 893 0018 00000000 		.dword	_ZN6ThreadD0Ev
 893      00000000 
 894 0020 00000000 		.dword	_ZN6Thread3runEv
 894      00000000 
 895              		.weak	_ZTV9Semaphore
 896              		.section	.data.rel.ro.local._ZTV9Semaphore,"awG",@progbits,_ZTV9Semaphore,comdat
 897              		.align	3
 900              	_ZTV9Semaphore:
 901 0000 00000000 		.dword	0
 901      00000000 
 902 0008 00000000 		.dword	0
 902      00000000 
 903 0010 00000000 		.dword	_ZN9SemaphoreD1Ev
 903      00000000 
 904 0018 00000000 		.dword	_ZN9SemaphoreD0Ev
 904      00000000 
 905              		.text
 906              	.Letext0:
 907              		.file 4 "src/../h/../lib/hw.h"
 908              		.file 5 "src/../h/syscall_c.hpp"
 909              		.file 6 "src/../h/../h/MySemaphore.hpp"
 910              		.file 7 "src/../h/MemoryAllocator.hpp"
 911              		.file 8 "src/../h/list.hpp"
 5057              		.align	3
 5060              	DW.ref.__gxx_personality_v0:
 5061 0000 00000000 		.dword	__gxx_personality_v0
 5061      00000000 
 5062              		.ident	"GCC: (Ubuntu 9.4.0-1ubuntu1~20.04) 9.4.0"
 5063              		.section	.note.GNU-stack,"",@progbits
GAS LISTING /tmp/ccZ0xtje.s 			page 22

