GAS LISTING /tmp/cchsaaga.s 			page 1


   1              		.file	"syscall_c.cpp"
   2              		.option pic
   3              		.option norelax
   4              		.text
   5              	.Ltext0:
   6              		.align	2
   7              		.globl	_Z9mem_allocm
   9              	_Z9mem_allocm:
  10              	.LFB0:
  11              		.file 1 "src/syscall_c.cpp"
   1:src/syscall_c.cpp **** //
   2:src/syscall_c.cpp **** // Created by os on 5/19/24.
   3:src/syscall_c.cpp **** //
   4:src/syscall_c.cpp **** 
   5:src/syscall_c.cpp **** #include "../h/syscall_c.hpp"
   6:src/syscall_c.cpp **** #include "../h/printing.hpp"
   7:src/syscall_c.cpp **** 
   8:src/syscall_c.cpp **** void* mem_alloc(size_t size)
   9:src/syscall_c.cpp **** {
  12              		.loc 1 9 1
  13              		.cfi_startproc
  14              	.LVL0:
  15 0000 130101FD 		addi	sp,sp,-48
  16              		.cfi_def_cfa_offset 48
  17 0004 23348102 		sd	s0,40(sp)
  18              		.cfi_offset 8, -8
  19 0008 13040103 		addi	s0,sp,48
  20              		.cfi_def_cfa 8, 0
  10:src/syscall_c.cpp **** 
  11:src/syscall_c.cpp ****     void* volatile address = nullptr;
  21              		.loc 1 11 5
  22              		.loc 1 11 20 is_stmt 0
  23 000c 233404FE 		sd	zero,-24(s0)
  12:src/syscall_c.cpp ****     uint64 volatile number = 0x01;
  24              		.loc 1 12 5 is_stmt 1
  25              		.loc 1 12 21 is_stmt 0
  26 0010 93071000 		li	a5,1
  27 0014 2330F4FE 		sd	a5,-32(s0)
  13:src/syscall_c.cpp ****     uint64 volatile numberOfBlocks = (size + MEM_BLOCK_SIZE - 1) / MEM_BLOCK_SIZE;
  28              		.loc 1 13 5 is_stmt 1
  29              		.loc 1 13 61 is_stmt 0
  30 0018 1305F503 		addi	a0,a0,63
  31              	.LVL1:
  32              		.loc 1 13 66
  33 001c 13556500 		srli	a0,a0,6
  34              	.LVL2:
  35              		.loc 1 13 21
  36 0020 233CA4FC 		sd	a0,-40(s0)
  14:src/syscall_c.cpp ****     //printString("x");
  15:src/syscall_c.cpp ****     //printInteger( numberOfBlocks);
  16:src/syscall_c.cpp ****     //printString("x");
  17:src/syscall_c.cpp ****     //printString("\n");
  18:src/syscall_c.cpp ****     __asm__ volatile("mv a0, %0" : : "r" (number));
  37              		.loc 1 18 5 is_stmt 1
  38              		.loc 1 18 43 is_stmt 0
  39 0024 833704FE 		ld	a5,-32(s0)
  40              		.loc 1 18 51
GAS LISTING /tmp/cchsaaga.s 			page 2


  41              	#APP
  42              	# 18 "src/syscall_c.cpp" 1
  19              	    __asm__ volatile("mv a1, %0" : : "r" (numberOfBlocks));
  43              		mv a0, a5
  44              	# 0 "" 2
  45              		.loc 1 19 5 is_stmt 1
  46              		.loc 1 19 43 is_stmt 0
  47              	#NO_APP
  48 002c 833784FD 		ld	a5,-40(s0)
  49              		.loc 1 19 59
  50              	#APP
  51              	# 19 "src/syscall_c.cpp" 1
  20              	
  21:src/syscall_c.cpp ****     __asm__ volatile("ecall");
  52              		mv a1, a5
  53              	# 0 "" 2
  54              		.loc 1 21 5 is_stmt 1
  55              		.loc 1 21 30 is_stmt 0
  56              	# 21 "src/syscall_c.cpp" 1
  22              	
  23:src/syscall_c.cpp ****     __asm__ volatile("mv %0, a0" : "=r" (address));
  57              		ecall
  58              	# 0 "" 2
  59              		.loc 1 23 5 is_stmt 1
  60              		.loc 1 23 51 is_stmt 0
  61              	# 23 "src/syscall_c.cpp" 1
  24              	
  62              		mv a5, a0
  63              	# 0 "" 2
  64              	#NO_APP
  65 003c 2334F4FE 		sd	a5,-24(s0)
  25:src/syscall_c.cpp ****     return address;
  66              		.loc 1 25 5 is_stmt 1
  67              		.loc 1 25 12 is_stmt 0
  68 0040 033584FE 		ld	a0,-24(s0)
  26:src/syscall_c.cpp **** 
  27:src/syscall_c.cpp ****     //return __mem_alloc(size);
  28:src/syscall_c.cpp **** }
  69              		.loc 1 28 1
  70 0044 03348102 		ld	s0,40(sp)
  71              		.cfi_restore 8
  72              		.cfi_def_cfa 2, 48
  73 0048 13010103 		addi	sp,sp,48
  74              		.cfi_def_cfa_offset 0
  75 004c 67800000 		jr	ra
  76              		.cfi_endproc
  77              	.LFE0:
  79              		.align	2
  80              		.globl	_Z8mem_freePv
  82              	_Z8mem_freePv:
  83              	.LFB1:
  29:src/syscall_c.cpp **** 
  30:src/syscall_c.cpp **** int mem_free(void* address)
  31:src/syscall_c.cpp **** {
  84              		.loc 1 31 1 is_stmt 1
  85              		.cfi_startproc
  86              	.LVL3:
GAS LISTING /tmp/cchsaaga.s 			page 3


  87 0050 130101FE 		addi	sp,sp,-32
  88              		.cfi_def_cfa_offset 32
  89 0054 233C8100 		sd	s0,24(sp)
  90              		.cfi_offset 8, -8
  91 0058 13040102 		addi	s0,sp,32
  92              		.cfi_def_cfa 8, 0
  32:src/syscall_c.cpp ****     int volatile returnValue;
  93              		.loc 1 32 5
  33:src/syscall_c.cpp ****     uint64 volatile number = 0x02;
  94              		.loc 1 33 5
  95              		.loc 1 33 21 is_stmt 0
  96 005c 93072000 		li	a5,2
  97 0060 2330F4FE 		sd	a5,-32(s0)
  34:src/syscall_c.cpp **** 
  35:src/syscall_c.cpp ****     __asm__ volatile("mv a1, %0" : : "r" (address));
  98              		.loc 1 35 5 is_stmt 1
  99              		.loc 1 35 52 is_stmt 0
 100              	#APP
 101              	# 35 "src/syscall_c.cpp" 1
  36              	    __asm__ volatile("mv a0, %0" : : "r" (number));
 102              		mv a1, a0
 103              	# 0 "" 2
 104              		.loc 1 36 5 is_stmt 1
 105              		.loc 1 36 43 is_stmt 0
 106              	#NO_APP
 107 0068 833704FE 		ld	a5,-32(s0)
 108              		.loc 1 36 51
 109              	#APP
 110              	# 36 "src/syscall_c.cpp" 1
  37              	
  38:src/syscall_c.cpp ****     __asm__ volatile("ecall");
 111              		mv a0, a5
 112              	# 0 "" 2
 113              		.loc 1 38 5 is_stmt 1
 114              		.loc 1 38 30 is_stmt 0
 115              	# 38 "src/syscall_c.cpp" 1
  39              	
  40:src/syscall_c.cpp **** 
  41:src/syscall_c.cpp ****     __asm__ volatile("mv %0, a0" : "=r" (returnValue));
 116              		ecall
 117              	# 0 "" 2
 118              		.loc 1 41 5 is_stmt 1
 119              		.loc 1 41 55 is_stmt 0
 120              	# 41 "src/syscall_c.cpp" 1
  42              	
 121              		mv a5, a0
 122              	# 0 "" 2
 123              	#NO_APP
 124 0078 2326F4FE 		sw	a5,-20(s0)
  43:src/syscall_c.cpp ****     return returnValue;
 125              		.loc 1 43 5 is_stmt 1
 126              		.loc 1 43 12 is_stmt 0
 127 007c 0325C4FE 		lw	a0,-20(s0)
 128              	.LVL4:
  44:src/syscall_c.cpp **** 
  45:src/syscall_c.cpp ****     //return __mem_free(address);
  46:src/syscall_c.cpp **** }
GAS LISTING /tmp/cchsaaga.s 			page 4


 129              		.loc 1 46 1
 130 0080 1B050500 		sext.w	a0,a0
 131 0084 03348101 		ld	s0,24(sp)
 132              		.cfi_restore 8
 133              		.cfi_def_cfa 2, 32
 134 0088 13010102 		addi	sp,sp,32
 135              		.cfi_def_cfa_offset 0
 136 008c 67800000 		jr	ra
 137              		.cfi_endproc
 138              	.LFE1:
 140              		.align	2
 141              		.globl	_Z13thread_createPP3TCBPFvPvES2_
 143              	_Z13thread_createPP3TCBPFvPvES2_:
 144              	.LFB2:
  47:src/syscall_c.cpp **** 
  48:src/syscall_c.cpp **** int thread_create(thread_t* handle, void(*start_routine)(void*), void* arg)
  49:src/syscall_c.cpp **** {
 145              		.loc 1 49 1 is_stmt 1
 146              		.cfi_startproc
 147              	.LVL5:
 148 0090 130101FB 		addi	sp,sp,-80
 149              		.cfi_def_cfa_offset 80
 150 0094 23341104 		sd	ra,72(sp)
 151 0098 23308104 		sd	s0,64(sp)
 152 009c 233C9102 		sd	s1,56(sp)
 153              		.cfi_offset 1, -8
 154              		.cfi_offset 8, -16
 155              		.cfi_offset 9, -24
 156 00a0 13040105 		addi	s0,sp,80
 157              		.cfi_def_cfa 8, 0
 158 00a4 93840500 		mv	s1,a1
  50:src/syscall_c.cpp ****     thread_t* volatile local_handle = handle;
 159              		.loc 1 50 5
 160              		.loc 1 50 24 is_stmt 0
 161 00a8 233CA4FC 		sd	a0,-40(s0)
  51:src/syscall_c.cpp ****     void(*local_start_routine)(void*) = start_routine;
 162              		.loc 1 51 5 is_stmt 1
 163              	.LVL6:
  52:src/syscall_c.cpp ****     void* volatile local_arg = arg;
 164              		.loc 1 52 5
 165              		.loc 1 52 20 is_stmt 0
 166 00ac 2338C4FC 		sd	a2,-48(s0)
  53:src/syscall_c.cpp **** 
  54:src/syscall_c.cpp ****     //mem_alloc stack-a
  55:src/syscall_c.cpp **** 
  56:src/syscall_c.cpp ****     void* volatile stack;
 167              		.loc 1 56 5 is_stmt 1
  57:src/syscall_c.cpp ****     stack = mem_alloc(DEFAULT_STACK_SIZE * sizeof(uint64));
 168              		.loc 1 57 5
 169              		.loc 1 57 22 is_stmt 0
 170 00b0 37850000 		li	a0,32768
 171              	.LVL7:
 172 00b4 97000000 		call	_Z9mem_allocm
 172      E7800000 
 173              	.LVL8:
 174              		.loc 1 57 11
 175 00bc 2334A4FC 		sd	a0,-56(s0)
GAS LISTING /tmp/cchsaaga.s 			page 5


 176              	.LVL9:
  58:src/syscall_c.cpp **** 
  59:src/syscall_c.cpp ****     //thread_create
  60:src/syscall_c.cpp **** 
  61:src/syscall_c.cpp ****     int volatile returnValue;
 177              		.loc 1 61 5 is_stmt 1
  62:src/syscall_c.cpp ****     uint64 volatile number = 0x11;
 178              		.loc 1 62 5
 179              		.loc 1 62 21 is_stmt 0
 180 00c0 93071001 		li	a5,17
 181 00c4 233CF4FA 		sd	a5,-72(s0)
  63:src/syscall_c.cpp **** 
  64:src/syscall_c.cpp ****     __asm__ volatile("mv a0, %0" : : "r" (number));
 182              		.loc 1 64 5 is_stmt 1
 183              		.loc 1 64 43 is_stmt 0
 184 00c8 833784FB 		ld	a5,-72(s0)
 185              		.loc 1 64 51
 186              	#APP
 187              	# 64 "src/syscall_c.cpp" 1
  65              	    __asm__ volatile("mv a1, %0" : : "r" (local_handle));
 188              		mv a0, a5
 189              	# 0 "" 2
 190              		.loc 1 65 5 is_stmt 1
 191              		.loc 1 65 43 is_stmt 0
 192              	#NO_APP
 193 00d0 833784FD 		ld	a5,-40(s0)
 194              		.loc 1 65 57
 195              	#APP
 196              	# 65 "src/syscall_c.cpp" 1
  66              	    __asm__ volatile("mv a2, %0" : : "r" (local_start_routine));
 197              		mv a1, a5
 198              	# 0 "" 2
 199              		.loc 1 66 5 is_stmt 1
 200              		.loc 1 66 64 is_stmt 0
 201              	# 66 "src/syscall_c.cpp" 1
  67              	    __asm__ volatile("mv a3, %0" : : "r" (local_arg));
 202              		mv a2, s1
 203              	# 0 "" 2
 204              		.loc 1 67 5 is_stmt 1
 205              		.loc 1 67 43 is_stmt 0
 206              	#NO_APP
 207 00dc 833704FD 		ld	a5,-48(s0)
 208              		.loc 1 67 54
 209              	#APP
 210              	# 67 "src/syscall_c.cpp" 1
  68              	    __asm__ volatile("mv a4, %0" : : "r" (stack));
 211              		mv a3, a5
 212              	# 0 "" 2
 213              		.loc 1 68 5 is_stmt 1
 214              		.loc 1 68 43 is_stmt 0
 215              	#NO_APP
 216 00e4 833784FC 		ld	a5,-56(s0)
 217              		.loc 1 68 50
 218              	#APP
 219              	# 68 "src/syscall_c.cpp" 1
  69              	
  70:src/syscall_c.cpp ****     __asm__ volatile("ecall");
GAS LISTING /tmp/cchsaaga.s 			page 6


 220              		mv a4, a5
 221              	# 0 "" 2
 222              		.loc 1 70 5 is_stmt 1
 223              		.loc 1 70 30 is_stmt 0
 224              	# 70 "src/syscall_c.cpp" 1
  71              	
  72:src/syscall_c.cpp ****     __asm__ volatile("mv %0, a0" : "=r" (returnValue));
 225              		ecall
 226              	# 0 "" 2
 227              		.loc 1 72 5 is_stmt 1
 228              		.loc 1 72 55 is_stmt 0
 229              	# 72 "src/syscall_c.cpp" 1
  73              	
 230              		mv a5, a0
 231              	# 0 "" 2
 232              	#NO_APP
 233 00f4 2322F4FC 		sw	a5,-60(s0)
  74:src/syscall_c.cpp ****     return returnValue;
 234              		.loc 1 74 5 is_stmt 1
 235              		.loc 1 74 12 is_stmt 0
 236 00f8 032544FC 		lw	a0,-60(s0)
  75:src/syscall_c.cpp **** }
 237              		.loc 1 75 1
 238 00fc 1B050500 		sext.w	a0,a0
 239 0100 83308104 		ld	ra,72(sp)
 240              		.cfi_restore 1
 241 0104 03340104 		ld	s0,64(sp)
 242              		.cfi_restore 8
 243              		.cfi_def_cfa 2, 80
 244 0108 83348103 		ld	s1,56(sp)
 245              		.cfi_restore 9
 246              	.LVL10:
 247 010c 13010105 		addi	sp,sp,80
 248              		.cfi_def_cfa_offset 0
 249 0110 67800000 		jr	ra
 250              		.cfi_endproc
 251              	.LFE2:
 253              		.align	2
 254              		.globl	_Z11thread_exitv
 256              	_Z11thread_exitv:
 257              	.LFB3:
  76:src/syscall_c.cpp **** 
  77:src/syscall_c.cpp **** int thread_exit()
  78:src/syscall_c.cpp **** {
 258              		.loc 1 78 1 is_stmt 1
 259              		.cfi_startproc
 260 0114 130101FE 		addi	sp,sp,-32
 261              		.cfi_def_cfa_offset 32
 262 0118 233C8100 		sd	s0,24(sp)
 263              		.cfi_offset 8, -8
 264 011c 13040102 		addi	s0,sp,32
 265              		.cfi_def_cfa 8, 0
  79:src/syscall_c.cpp ****     int volatile returnValue;
 266              		.loc 1 79 5
  80:src/syscall_c.cpp ****     uint64 volatile number = 0x12;
 267              		.loc 1 80 5
 268              		.loc 1 80 21 is_stmt 0
GAS LISTING /tmp/cchsaaga.s 			page 7


 269 0120 93072001 		li	a5,18
 270 0124 2330F4FE 		sd	a5,-32(s0)
  81:src/syscall_c.cpp **** 
  82:src/syscall_c.cpp ****     __asm__ volatile("mv a0, %0" : : "r" (number));
 271              		.loc 1 82 5 is_stmt 1
 272              		.loc 1 82 43 is_stmt 0
 273 0128 833704FE 		ld	a5,-32(s0)
 274              		.loc 1 82 51
 275              	#APP
 276              	# 82 "src/syscall_c.cpp" 1
  83              	
  84:src/syscall_c.cpp ****     __asm__ volatile("ecall");
 277              		mv a0, a5
 278              	# 0 "" 2
 279              		.loc 1 84 5 is_stmt 1
 280              		.loc 1 84 30 is_stmt 0
 281              	# 84 "src/syscall_c.cpp" 1
  85              	
  86:src/syscall_c.cpp ****     __asm__ volatile("mv %0, a0" : "=r" (returnValue));
 282              		ecall
 283              	# 0 "" 2
 284              		.loc 1 86 5 is_stmt 1
 285              		.loc 1 86 55 is_stmt 0
 286              	# 86 "src/syscall_c.cpp" 1
  87              	
 287              		mv a5, a0
 288              	# 0 "" 2
 289              	#NO_APP
 290 0138 2326F4FE 		sw	a5,-20(s0)
  88:src/syscall_c.cpp ****     return returnValue;
 291              		.loc 1 88 5 is_stmt 1
 292              		.loc 1 88 12 is_stmt 0
 293 013c 0325C4FE 		lw	a0,-20(s0)
  89:src/syscall_c.cpp **** }
 294              		.loc 1 89 1
 295 0140 1B050500 		sext.w	a0,a0
 296 0144 03348101 		ld	s0,24(sp)
 297              		.cfi_restore 8
 298              		.cfi_def_cfa 2, 32
 299 0148 13010102 		addi	sp,sp,32
 300              		.cfi_def_cfa_offset 0
 301 014c 67800000 		jr	ra
 302              		.cfi_endproc
 303              	.LFE3:
 305              		.align	2
 306              		.globl	_Z15thread_dispatchv
 308              	_Z15thread_dispatchv:
 309              	.LFB4:
  90:src/syscall_c.cpp **** 
  91:src/syscall_c.cpp **** void thread_dispatch()
  92:src/syscall_c.cpp **** {
 310              		.loc 1 92 1 is_stmt 1
 311              		.cfi_startproc
 312 0150 130101FE 		addi	sp,sp,-32
 313              		.cfi_def_cfa_offset 32
 314 0154 233C8100 		sd	s0,24(sp)
 315              		.cfi_offset 8, -8
GAS LISTING /tmp/cchsaaga.s 			page 8


 316 0158 13040102 		addi	s0,sp,32
 317              		.cfi_def_cfa 8, 0
  93:src/syscall_c.cpp ****     uint64 volatile number = 0x13;
 318              		.loc 1 93 5
 319              		.loc 1 93 21 is_stmt 0
 320 015c 93073001 		li	a5,19
 321 0160 2334F4FE 		sd	a5,-24(s0)
  94:src/syscall_c.cpp **** 
  95:src/syscall_c.cpp ****     __asm__ volatile("mv a0, %0" : : "r" (number));
 322              		.loc 1 95 5 is_stmt 1
 323              		.loc 1 95 43 is_stmt 0
 324 0164 833784FE 		ld	a5,-24(s0)
 325              		.loc 1 95 51
 326              	#APP
 327              	# 95 "src/syscall_c.cpp" 1
  96              	
  97:src/syscall_c.cpp ****     __asm__ volatile("ecall");
 328              		mv a0, a5
 329              	# 0 "" 2
 330              		.loc 1 97 5 is_stmt 1
 331              		.loc 1 97 30 is_stmt 0
 332              	# 97 "src/syscall_c.cpp" 1
  98              	}
 333              		ecall
 334              	# 0 "" 2
 335              		.loc 1 98 1
 336              	#NO_APP
 337 0170 03348101 		ld	s0,24(sp)
 338              		.cfi_restore 8
 339              		.cfi_def_cfa 2, 32
 340 0174 13010102 		addi	sp,sp,32
 341              		.cfi_def_cfa_offset 0
 342 0178 67800000 		jr	ra
 343              		.cfi_endproc
 344              	.LFE4:
 346              		.align	2
 347              		.globl	_Z4sendP3TCBPc
 349              	_Z4sendP3TCBPc:
 350              	.LFB5:
  99:src/syscall_c.cpp **** 
 100:src/syscall_c.cpp **** void send(thread_t handle, char* message)
 101:src/syscall_c.cpp **** {
 351              		.loc 1 101 1 is_stmt 1
 352              		.cfi_startproc
 353              	.LVL11:
 354 017c 130101FE 		addi	sp,sp,-32
 355              		.cfi_def_cfa_offset 32
 356 0180 233C8100 		sd	s0,24(sp)
 357              		.cfi_offset 8, -8
 358 0184 13040102 		addi	s0,sp,32
 359              		.cfi_def_cfa 8, 0
 102:src/syscall_c.cpp ****     uint64 volatile number = 0x14;
 360              		.loc 1 102 5
 361              		.loc 1 102 21 is_stmt 0
 362 0188 93074001 		li	a5,20
 363 018c 2334F4FE 		sd	a5,-24(s0)
 103:src/syscall_c.cpp **** 
GAS LISTING /tmp/cchsaaga.s 			page 9


 104:src/syscall_c.cpp ****     __asm__ volatile("mv a2, %0" : : "r" (message));
 364              		.loc 1 104 5 is_stmt 1
 365              		.loc 1 104 52 is_stmt 0
 366              	#APP
 367              	# 104 "src/syscall_c.cpp" 1
 105              	    __asm__ volatile("mv a1, %0" : : "r" (handle));
 368              		mv a2, a1
 369              	# 0 "" 2
 370              		.loc 1 105 5 is_stmt 1
 371              		.loc 1 105 51 is_stmt 0
 372              	# 105 "src/syscall_c.cpp" 1
 106              	    __asm__ volatile("mv a0, %0" : : "r" (number));
 373              		mv a1, a0
 374              	# 0 "" 2
 375              		.loc 1 106 5 is_stmt 1
 376              		.loc 1 106 43 is_stmt 0
 377              	#NO_APP
 378 0198 833784FE 		ld	a5,-24(s0)
 379              		.loc 1 106 51
 380              	#APP
 381              	# 106 "src/syscall_c.cpp" 1
 107              	
 108:src/syscall_c.cpp ****     __asm__ volatile("ecall");
 382              		mv a0, a5
 383              	# 0 "" 2
 384              		.loc 1 108 5 is_stmt 1
 385              		.loc 1 108 30 is_stmt 0
 386              	# 108 "src/syscall_c.cpp" 1
 109              	}
 387              		ecall
 388              	# 0 "" 2
 389              		.loc 1 109 1
 390              	#NO_APP
 391 01a4 03348101 		ld	s0,24(sp)
 392              		.cfi_restore 8
 393              		.cfi_def_cfa 2, 32
 394 01a8 13010102 		addi	sp,sp,32
 395              		.cfi_def_cfa_offset 0
 396 01ac 67800000 		jr	ra
 397              		.cfi_endproc
 398              	.LFE5:
 400              		.align	2
 401              		.globl	_Z7receivev
 403              	_Z7receivev:
 404              	.LFB6:
 110:src/syscall_c.cpp **** 
 111:src/syscall_c.cpp **** char* receive()
 112:src/syscall_c.cpp **** {
 405              		.loc 1 112 1 is_stmt 1
 406              		.cfi_startproc
 407 01b0 130101FE 		addi	sp,sp,-32
 408              		.cfi_def_cfa_offset 32
 409 01b4 233C8100 		sd	s0,24(sp)
 410              		.cfi_offset 8, -8
 411 01b8 13040102 		addi	s0,sp,32
 412              		.cfi_def_cfa 8, 0
 113:src/syscall_c.cpp ****     char* volatile returnValue;
GAS LISTING /tmp/cchsaaga.s 			page 10


 413              		.loc 1 113 5
 114:src/syscall_c.cpp ****     uint64 volatile number = 0x15;
 414              		.loc 1 114 5
 415              		.loc 1 114 21 is_stmt 0
 416 01bc 93075001 		li	a5,21
 417 01c0 2330F4FE 		sd	a5,-32(s0)
 115:src/syscall_c.cpp **** 
 116:src/syscall_c.cpp ****     __asm__ volatile("mv a0, %0" : : "r" (number));
 418              		.loc 1 116 5 is_stmt 1
 419              		.loc 1 116 43 is_stmt 0
 420 01c4 833704FE 		ld	a5,-32(s0)
 421              		.loc 1 116 51
 422              	#APP
 423              	# 116 "src/syscall_c.cpp" 1
 117              	
 118:src/syscall_c.cpp ****     __asm__ volatile("ecall");
 424              		mv a0, a5
 425              	# 0 "" 2
 426              		.loc 1 118 5 is_stmt 1
 427              		.loc 1 118 30 is_stmt 0
 428              	# 118 "src/syscall_c.cpp" 1
 119              	
 120:src/syscall_c.cpp ****     __asm__ volatile("mv %0, a0" : "=r" (returnValue));
 429              		ecall
 430              	# 0 "" 2
 431              		.loc 1 120 5 is_stmt 1
 432              		.loc 1 120 55 is_stmt 0
 433              	# 120 "src/syscall_c.cpp" 1
 121              	
 434              		mv a5, a0
 435              	# 0 "" 2
 436              	#NO_APP
 437 01d4 2334F4FE 		sd	a5,-24(s0)
 122:src/syscall_c.cpp ****     return returnValue;
 438              		.loc 1 122 5 is_stmt 1
 439              		.loc 1 122 12 is_stmt 0
 440 01d8 033584FE 		ld	a0,-24(s0)
 123:src/syscall_c.cpp **** }
 441              		.loc 1 123 1
 442 01dc 03348101 		ld	s0,24(sp)
 443              		.cfi_restore 8
 444              		.cfi_def_cfa 2, 32
 445 01e0 13010102 		addi	sp,sp,32
 446              		.cfi_def_cfa_offset 0
 447 01e4 67800000 		jr	ra
 448              		.cfi_endproc
 449              	.LFE6:
 451              		.align	2
 452              		.globl	_Z8sem_openPP11MySemaphorej
 454              	_Z8sem_openPP11MySemaphorej:
 455              	.LFB7:
 124:src/syscall_c.cpp **** 
 125:src/syscall_c.cpp **** int sem_open(sem_t* handle, unsigned init)
 126:src/syscall_c.cpp **** {
 456              		.loc 1 126 1 is_stmt 1
 457              		.cfi_startproc
 458              	.LVL12:
GAS LISTING /tmp/cchsaaga.s 			page 11


 459 01e8 130101FE 		addi	sp,sp,-32
 460              		.cfi_def_cfa_offset 32
 461 01ec 233C8100 		sd	s0,24(sp)
 462              		.cfi_offset 8, -8
 463 01f0 13040102 		addi	s0,sp,32
 464              		.cfi_def_cfa 8, 0
 127:src/syscall_c.cpp ****     int volatile returnValue;
 465              		.loc 1 127 5
 128:src/syscall_c.cpp ****     uint64 volatile number = 0x21;
 466              		.loc 1 128 5
 467              		.loc 1 128 21 is_stmt 0
 468 01f4 93071002 		li	a5,33
 469 01f8 2330F4FE 		sd	a5,-32(s0)
 129:src/syscall_c.cpp **** 
 130:src/syscall_c.cpp ****     __asm__ volatile("mv a2, %0" : : "r" (init));
 470              		.loc 1 130 5 is_stmt 1
 471              		.loc 1 130 49 is_stmt 0
 472              	#APP
 473              	# 130 "src/syscall_c.cpp" 1
 131              	    __asm__ volatile("mv a1, %0" : : "r" (handle));
 474              		mv a2, a1
 475              	# 0 "" 2
 476              		.loc 1 131 5 is_stmt 1
 477              		.loc 1 131 51 is_stmt 0
 478              	# 131 "src/syscall_c.cpp" 1
 132              	    __asm__ volatile("mv a0, %0" : : "r" (number));
 479              		mv a1, a0
 480              	# 0 "" 2
 481              		.loc 1 132 5 is_stmt 1
 482              		.loc 1 132 43 is_stmt 0
 483              	#NO_APP
 484 0204 833704FE 		ld	a5,-32(s0)
 485              		.loc 1 132 51
 486              	#APP
 487              	# 132 "src/syscall_c.cpp" 1
 133              	
 134:src/syscall_c.cpp ****     __asm__ volatile("ecall");
 488              		mv a0, a5
 489              	# 0 "" 2
 490              		.loc 1 134 5 is_stmt 1
 491              		.loc 1 134 30 is_stmt 0
 492              	# 134 "src/syscall_c.cpp" 1
 135              	
 136:src/syscall_c.cpp ****     __asm__ volatile("mv %0, a0" : "=r" (returnValue));
 493              		ecall
 494              	# 0 "" 2
 495              		.loc 1 136 5 is_stmt 1
 496              		.loc 1 136 55 is_stmt 0
 497              	# 136 "src/syscall_c.cpp" 1
 137              	
 498              		mv a5, a0
 499              	# 0 "" 2
 500              	#NO_APP
 501 0214 2326F4FE 		sw	a5,-20(s0)
 138:src/syscall_c.cpp ****     return returnValue;
 502              		.loc 1 138 5 is_stmt 1
 503              		.loc 1 138 12 is_stmt 0
GAS LISTING /tmp/cchsaaga.s 			page 12


 504 0218 0325C4FE 		lw	a0,-20(s0)
 505              	.LVL13:
 139:src/syscall_c.cpp **** }
 506              		.loc 1 139 1
 507 021c 1B050500 		sext.w	a0,a0
 508 0220 03348101 		ld	s0,24(sp)
 509              		.cfi_restore 8
 510              		.cfi_def_cfa 2, 32
 511 0224 13010102 		addi	sp,sp,32
 512              		.cfi_def_cfa_offset 0
 513 0228 67800000 		jr	ra
 514              		.cfi_endproc
 515              	.LFE7:
 517              		.align	2
 518              		.globl	_Z9sem_closeP11MySemaphore
 520              	_Z9sem_closeP11MySemaphore:
 521              	.LFB8:
 140:src/syscall_c.cpp **** 
 141:src/syscall_c.cpp **** int sem_close(sem_t handle)
 142:src/syscall_c.cpp **** {
 522              		.loc 1 142 1 is_stmt 1
 523              		.cfi_startproc
 524              	.LVL14:
 525 022c 130101FE 		addi	sp,sp,-32
 526              		.cfi_def_cfa_offset 32
 527 0230 233C8100 		sd	s0,24(sp)
 528              		.cfi_offset 8, -8
 529 0234 13040102 		addi	s0,sp,32
 530              		.cfi_def_cfa 8, 0
 143:src/syscall_c.cpp ****     int volatile returnValue;
 531              		.loc 1 143 5
 144:src/syscall_c.cpp ****     uint64 volatile number = 0x22;
 532              		.loc 1 144 5
 533              		.loc 1 144 21 is_stmt 0
 534 0238 93072002 		li	a5,34
 535 023c 2330F4FE 		sd	a5,-32(s0)
 145:src/syscall_c.cpp **** 
 146:src/syscall_c.cpp ****     __asm__ volatile("mv a1, %0" : : "r" (handle));
 536              		.loc 1 146 5 is_stmt 1
 537              		.loc 1 146 51 is_stmt 0
 538              	#APP
 539              	# 146 "src/syscall_c.cpp" 1
 147              	    __asm__ volatile("mv a0, %0" : : "r" (number));
 540              		mv a1, a0
 541              	# 0 "" 2
 542              		.loc 1 147 5 is_stmt 1
 543              		.loc 1 147 43 is_stmt 0
 544              	#NO_APP
 545 0244 833704FE 		ld	a5,-32(s0)
 546              		.loc 1 147 51
 547              	#APP
 548              	# 147 "src/syscall_c.cpp" 1
 148              	
 149:src/syscall_c.cpp ****     __asm__ volatile("ecall");
 549              		mv a0, a5
 550              	# 0 "" 2
 551              		.loc 1 149 5 is_stmt 1
GAS LISTING /tmp/cchsaaga.s 			page 13


 552              		.loc 1 149 30 is_stmt 0
 553              	# 149 "src/syscall_c.cpp" 1
 150              	
 151:src/syscall_c.cpp ****     __asm__ volatile("mv %0, a0" : "=r" (returnValue));
 554              		ecall
 555              	# 0 "" 2
 556              		.loc 1 151 5 is_stmt 1
 557              		.loc 1 151 55 is_stmt 0
 558              	# 151 "src/syscall_c.cpp" 1
 152              	
 559              		mv a5, a0
 560              	# 0 "" 2
 561              	#NO_APP
 562 0254 2326F4FE 		sw	a5,-20(s0)
 153:src/syscall_c.cpp ****     return returnValue;
 563              		.loc 1 153 5 is_stmt 1
 564              		.loc 1 153 12 is_stmt 0
 565 0258 0325C4FE 		lw	a0,-20(s0)
 566              	.LVL15:
 154:src/syscall_c.cpp **** }
 567              		.loc 1 154 1
 568 025c 1B050500 		sext.w	a0,a0
 569 0260 03348101 		ld	s0,24(sp)
 570              		.cfi_restore 8
 571              		.cfi_def_cfa 2, 32
 572 0264 13010102 		addi	sp,sp,32
 573              		.cfi_def_cfa_offset 0
 574 0268 67800000 		jr	ra
 575              		.cfi_endproc
 576              	.LFE8:
 578              		.align	2
 579              		.globl	_Z8sem_waitP11MySemaphore
 581              	_Z8sem_waitP11MySemaphore:
 582              	.LFB9:
 155:src/syscall_c.cpp **** 
 156:src/syscall_c.cpp **** int sem_wait(sem_t id)
 157:src/syscall_c.cpp **** {
 583              		.loc 1 157 1 is_stmt 1
 584              		.cfi_startproc
 585              	.LVL16:
 586 026c 130101FE 		addi	sp,sp,-32
 587              		.cfi_def_cfa_offset 32
 588 0270 233C8100 		sd	s0,24(sp)
 589              		.cfi_offset 8, -8
 590 0274 13040102 		addi	s0,sp,32
 591              		.cfi_def_cfa 8, 0
 158:src/syscall_c.cpp ****     int volatile returnValue;
 592              		.loc 1 158 5
 159:src/syscall_c.cpp ****     uint64 volatile number = 0x23;
 593              		.loc 1 159 5
 594              		.loc 1 159 21 is_stmt 0
 595 0278 93073002 		li	a5,35
 596 027c 2330F4FE 		sd	a5,-32(s0)
 160:src/syscall_c.cpp **** 
 161:src/syscall_c.cpp ****     __asm__ volatile("mv a1, %0" : : "r" (id));
 597              		.loc 1 161 5 is_stmt 1
 598              		.loc 1 161 47 is_stmt 0
GAS LISTING /tmp/cchsaaga.s 			page 14


 599              	#APP
 600              	# 161 "src/syscall_c.cpp" 1
 162              	    __asm__ volatile("mv a0, %0" : : "r" (number));
 601              		mv a1, a0
 602              	# 0 "" 2
 603              		.loc 1 162 5 is_stmt 1
 604              		.loc 1 162 43 is_stmt 0
 605              	#NO_APP
 606 0284 833704FE 		ld	a5,-32(s0)
 607              		.loc 1 162 51
 608              	#APP
 609              	# 162 "src/syscall_c.cpp" 1
 163              	
 164:src/syscall_c.cpp ****     __asm__ volatile("ecall");
 610              		mv a0, a5
 611              	# 0 "" 2
 612              		.loc 1 164 5 is_stmt 1
 613              		.loc 1 164 30 is_stmt 0
 614              	# 164 "src/syscall_c.cpp" 1
 165              	
 166:src/syscall_c.cpp ****     __asm__ volatile("mv %0, a0" : "=r" (returnValue));
 615              		ecall
 616              	# 0 "" 2
 617              		.loc 1 166 5 is_stmt 1
 618              		.loc 1 166 55 is_stmt 0
 619              	# 166 "src/syscall_c.cpp" 1
 167              	
 620              		mv a5, a0
 621              	# 0 "" 2
 622              	#NO_APP
 623 0294 2326F4FE 		sw	a5,-20(s0)
 168:src/syscall_c.cpp ****     return returnValue;
 624              		.loc 1 168 5 is_stmt 1
 625              		.loc 1 168 12 is_stmt 0
 626 0298 0325C4FE 		lw	a0,-20(s0)
 627              	.LVL17:
 169:src/syscall_c.cpp **** }
 628              		.loc 1 169 1
 629 029c 1B050500 		sext.w	a0,a0
 630 02a0 03348101 		ld	s0,24(sp)
 631              		.cfi_restore 8
 632              		.cfi_def_cfa 2, 32
 633 02a4 13010102 		addi	sp,sp,32
 634              		.cfi_def_cfa_offset 0
 635 02a8 67800000 		jr	ra
 636              		.cfi_endproc
 637              	.LFE9:
 639              		.align	2
 640              		.globl	_Z10sem_signalP11MySemaphore
 642              	_Z10sem_signalP11MySemaphore:
 643              	.LFB10:
 170:src/syscall_c.cpp **** 
 171:src/syscall_c.cpp **** int sem_signal(sem_t id)
 172:src/syscall_c.cpp **** {
 644              		.loc 1 172 1 is_stmt 1
 645              		.cfi_startproc
 646              	.LVL18:
GAS LISTING /tmp/cchsaaga.s 			page 15


 647 02ac 130101FE 		addi	sp,sp,-32
 648              		.cfi_def_cfa_offset 32
 649 02b0 233C8100 		sd	s0,24(sp)
 650              		.cfi_offset 8, -8
 651 02b4 13040102 		addi	s0,sp,32
 652              		.cfi_def_cfa 8, 0
 173:src/syscall_c.cpp ****     int volatile returnValue;
 653              		.loc 1 173 5
 174:src/syscall_c.cpp ****     uint64 volatile number = 0x24;
 654              		.loc 1 174 5
 655              		.loc 1 174 21 is_stmt 0
 656 02b8 93074002 		li	a5,36
 657 02bc 2330F4FE 		sd	a5,-32(s0)
 175:src/syscall_c.cpp **** 
 176:src/syscall_c.cpp ****     __asm__ volatile("mv a1, %0" : : "r" (id));
 658              		.loc 1 176 5 is_stmt 1
 659              		.loc 1 176 47 is_stmt 0
 660              	#APP
 661              	# 176 "src/syscall_c.cpp" 1
 177              	    __asm__ volatile("mv a0, %0" : : "r" (number));
 662              		mv a1, a0
 663              	# 0 "" 2
 664              		.loc 1 177 5 is_stmt 1
 665              		.loc 1 177 43 is_stmt 0
 666              	#NO_APP
 667 02c4 833704FE 		ld	a5,-32(s0)
 668              		.loc 1 177 51
 669              	#APP
 670              	# 177 "src/syscall_c.cpp" 1
 178              	
 179:src/syscall_c.cpp ****     __asm__ volatile("ecall");
 671              		mv a0, a5
 672              	# 0 "" 2
 673              		.loc 1 179 5 is_stmt 1
 674              		.loc 1 179 30 is_stmt 0
 675              	# 179 "src/syscall_c.cpp" 1
 180              	
 181:src/syscall_c.cpp ****     __asm__ volatile("mv %0, a0" : "=r" (returnValue));
 676              		ecall
 677              	# 0 "" 2
 678              		.loc 1 181 5 is_stmt 1
 679              		.loc 1 181 55 is_stmt 0
 680              	# 181 "src/syscall_c.cpp" 1
 182              	
 681              		mv a5, a0
 682              	# 0 "" 2
 683              	#NO_APP
 684 02d4 2326F4FE 		sw	a5,-20(s0)
 183:src/syscall_c.cpp ****     return returnValue;
 685              		.loc 1 183 5 is_stmt 1
 686              		.loc 1 183 12 is_stmt 0
 687 02d8 0325C4FE 		lw	a0,-20(s0)
 688              	.LVL19:
 184:src/syscall_c.cpp **** }
 689              		.loc 1 184 1
 690 02dc 1B050500 		sext.w	a0,a0
 691 02e0 03348101 		ld	s0,24(sp)
GAS LISTING /tmp/cchsaaga.s 			page 16


 692              		.cfi_restore 8
 693              		.cfi_def_cfa 2, 32
 694 02e4 13010102 		addi	sp,sp,32
 695              		.cfi_def_cfa_offset 0
 696 02e8 67800000 		jr	ra
 697              		.cfi_endproc
 698              	.LFE10:
 700              		.align	2
 701              		.globl	_Z11sem_trywaitP11MySemaphore
 703              	_Z11sem_trywaitP11MySemaphore:
 704              	.LFB11:
 185:src/syscall_c.cpp **** 
 186:src/syscall_c.cpp **** int sem_trywait(sem_t id)
 187:src/syscall_c.cpp **** {
 705              		.loc 1 187 1 is_stmt 1
 706              		.cfi_startproc
 707              	.LVL20:
 708 02ec 130101FE 		addi	sp,sp,-32
 709              		.cfi_def_cfa_offset 32
 710 02f0 233C8100 		sd	s0,24(sp)
 711              		.cfi_offset 8, -8
 712 02f4 13040102 		addi	s0,sp,32
 713              		.cfi_def_cfa 8, 0
 188:src/syscall_c.cpp ****     int volatile returnValue;
 714              		.loc 1 188 5
 189:src/syscall_c.cpp ****     uint64 volatile number = 0x26;
 715              		.loc 1 189 5
 716              		.loc 1 189 21 is_stmt 0
 717 02f8 93076002 		li	a5,38
 718 02fc 2330F4FE 		sd	a5,-32(s0)
 190:src/syscall_c.cpp **** 
 191:src/syscall_c.cpp ****     __asm__ volatile("mv a1, %0" : : "r" (id));
 719              		.loc 1 191 5 is_stmt 1
 720              		.loc 1 191 47 is_stmt 0
 721              	#APP
 722              	# 191 "src/syscall_c.cpp" 1
 192              	    __asm__ volatile("mv a0, %0" : : "r" (number));
 723              		mv a1, a0
 724              	# 0 "" 2
 725              		.loc 1 192 5 is_stmt 1
 726              		.loc 1 192 43 is_stmt 0
 727              	#NO_APP
 728 0304 833704FE 		ld	a5,-32(s0)
 729              		.loc 1 192 51
 730              	#APP
 731              	# 192 "src/syscall_c.cpp" 1
 193              	
 194:src/syscall_c.cpp ****     __asm__ volatile("ecall");
 732              		mv a0, a5
 733              	# 0 "" 2
 734              		.loc 1 194 5 is_stmt 1
 735              		.loc 1 194 30 is_stmt 0
 736              	# 194 "src/syscall_c.cpp" 1
 195              	
 196:src/syscall_c.cpp ****     __asm__ volatile("mv %0, a0" : "=r" (returnValue));
 737              		ecall
 738              	# 0 "" 2
GAS LISTING /tmp/cchsaaga.s 			page 17


 739              		.loc 1 196 5 is_stmt 1
 740              		.loc 1 196 55 is_stmt 0
 741              	# 196 "src/syscall_c.cpp" 1
 197              	
 742              		mv a5, a0
 743              	# 0 "" 2
 744              	#NO_APP
 745 0314 2326F4FE 		sw	a5,-20(s0)
 198:src/syscall_c.cpp ****     return returnValue;
 746              		.loc 1 198 5 is_stmt 1
 747              		.loc 1 198 12 is_stmt 0
 748 0318 0325C4FE 		lw	a0,-20(s0)
 749              	.LVL21:
 199:src/syscall_c.cpp **** }
 750              		.loc 1 199 1
 751 031c 1B050500 		sext.w	a0,a0
 752 0320 03348101 		ld	s0,24(sp)
 753              		.cfi_restore 8
 754              		.cfi_def_cfa 2, 32
 755 0324 13010102 		addi	sp,sp,32
 756              		.cfi_def_cfa_offset 0
 757 0328 67800000 		jr	ra
 758              		.cfi_endproc
 759              	.LFE11:
 761              		.align	2
 762              		.globl	_Z4getcv
 764              	_Z4getcv:
 765              	.LFB12:
 200:src/syscall_c.cpp **** 
 201:src/syscall_c.cpp **** char getc()
 202:src/syscall_c.cpp **** {
 766              		.loc 1 202 1 is_stmt 1
 767              		.cfi_startproc
 768 032c 130101FE 		addi	sp,sp,-32
 769              		.cfi_def_cfa_offset 32
 770 0330 233C8100 		sd	s0,24(sp)
 771              		.cfi_offset 8, -8
 772 0334 13040102 		addi	s0,sp,32
 773              		.cfi_def_cfa 8, 0
 203:src/syscall_c.cpp ****     char volatile returnValue;
 774              		.loc 1 203 5
 204:src/syscall_c.cpp ****     uint64 volatile number = 0x41;
 775              		.loc 1 204 5
 776              		.loc 1 204 21 is_stmt 0
 777 0338 93071004 		li	a5,65
 778 033c 2330F4FE 		sd	a5,-32(s0)
 205:src/syscall_c.cpp **** 
 206:src/syscall_c.cpp ****     __asm__ volatile("mv a0, %0" : : "r" (number));
 779              		.loc 1 206 5 is_stmt 1
 780              		.loc 1 206 43 is_stmt 0
 781 0340 833704FE 		ld	a5,-32(s0)
 782              		.loc 1 206 51
 783              	#APP
 784              	# 206 "src/syscall_c.cpp" 1
 207              	
 208:src/syscall_c.cpp ****     __asm__ volatile("ecall");
 785              		mv a0, a5
GAS LISTING /tmp/cchsaaga.s 			page 18


 786              	# 0 "" 2
 787              		.loc 1 208 5 is_stmt 1
 788              		.loc 1 208 30 is_stmt 0
 789              	# 208 "src/syscall_c.cpp" 1
 209              	
 210:src/syscall_c.cpp ****     __asm__ volatile("mv %0, a0" : "=r" (returnValue));
 790              		ecall
 791              	# 0 "" 2
 792              		.loc 1 210 5 is_stmt 1
 793              		.loc 1 210 55 is_stmt 0
 794              	# 210 "src/syscall_c.cpp" 1
 211              	
 795              		mv a5, a0
 796              	# 0 "" 2
 797              	#NO_APP
 798 0350 A307F4FE 		sb	a5,-17(s0)
 212:src/syscall_c.cpp ****     return returnValue;
 799              		.loc 1 212 5 is_stmt 1
 800              		.loc 1 212 12 is_stmt 0
 801 0354 0345F4FE 		lbu	a0,-17(s0)
 213:src/syscall_c.cpp **** }
 802              		.loc 1 213 1
 803 0358 1375F50F 		andi	a0,a0,0xff
 804 035c 03348101 		ld	s0,24(sp)
 805              		.cfi_restore 8
 806              		.cfi_def_cfa 2, 32
 807 0360 13010102 		addi	sp,sp,32
 808              		.cfi_def_cfa_offset 0
 809 0364 67800000 		jr	ra
 810              		.cfi_endproc
 811              	.LFE12:
 813              		.align	2
 814              		.globl	_Z4putcc
 816              	_Z4putcc:
 817              	.LFB13:
 214:src/syscall_c.cpp **** 
 215:src/syscall_c.cpp **** void putc(char c)
 216:src/syscall_c.cpp **** {
 818              		.loc 1 216 1 is_stmt 1
 819              		.cfi_startproc
 820              	.LVL22:
 821 0368 130101FE 		addi	sp,sp,-32
 822              		.cfi_def_cfa_offset 32
 823 036c 233C8100 		sd	s0,24(sp)
 824              		.cfi_offset 8, -8
 825 0370 13040102 		addi	s0,sp,32
 826              		.cfi_def_cfa 8, 0
 217:src/syscall_c.cpp ****     uint64 volatile number = 0x42;
 827              		.loc 1 217 5
 828              		.loc 1 217 21 is_stmt 0
 829 0374 93072004 		li	a5,66
 830 0378 2334F4FE 		sd	a5,-24(s0)
 218:src/syscall_c.cpp **** 
 219:src/syscall_c.cpp ****     __asm__ volatile("mv a1, %0" : : "r" (c));
 831              		.loc 1 219 5 is_stmt 1
 832              		.loc 1 219 46 is_stmt 0
 833              	#APP
GAS LISTING /tmp/cchsaaga.s 			page 19


 834              	# 219 "src/syscall_c.cpp" 1
 220              	    __asm__ volatile("mv a0, %0" : : "r" (number));
 835              		mv a1, a0
 836              	# 0 "" 2
 837              		.loc 1 220 5 is_stmt 1
 838              		.loc 1 220 43 is_stmt 0
 839              	#NO_APP
 840 0380 833784FE 		ld	a5,-24(s0)
 841              		.loc 1 220 51
 842              	#APP
 843              	# 220 "src/syscall_c.cpp" 1
 221              	
 222:src/syscall_c.cpp ****     __asm__ volatile("ecall");
 844              		mv a0, a5
 845              	# 0 "" 2
 846              		.loc 1 222 5 is_stmt 1
 847              		.loc 1 222 30 is_stmt 0
 848              	# 222 "src/syscall_c.cpp" 1
 223              	
 224:src/syscall_c.cpp **** }...
 849              		ecall
 850              	# 0 "" 2
 851              		.loc 1 224 1
 852              	#NO_APP
 853 038c 03348101 		ld	s0,24(sp)
 854              		.cfi_restore 8
 855              		.cfi_def_cfa 2, 32
 856 0390 13010102 		addi	sp,sp,32
 857              		.cfi_def_cfa_offset 0
 858 0394 67800000 		jr	ra
 859              		.cfi_endproc
 860              	.LFE13:
 862              	.Letext0:
 863              		.file 2 "src/../h/../lib/hw.h"
 864              		.file 3 "src/../h/syscall_c.hpp"
GAS LISTING /tmp/cchsaaga.s 			page 20


DEFINED SYMBOLS
                            *ABS*:0000000000000000 syscall_c.cpp
     /tmp/cchsaaga.s:9      .text:0000000000000000 _Z9mem_allocm
     /tmp/cchsaaga.s:13     .text:0000000000000000 .L0 
     /tmp/cchsaaga.s:15     .text:0000000000000000 .L0 
     /tmp/cchsaaga.s:16     .text:0000000000000004 .L0 
     /tmp/cchsaaga.s:18     .text:0000000000000008 .L0 
     /tmp/cchsaaga.s:20     .text:000000000000000c .L0 
     /tmp/cchsaaga.s:22     .text:000000000000000c .L0 
     /tmp/cchsaaga.s:23     .text:000000000000000c .L0 
     /tmp/cchsaaga.s:25     .text:0000000000000010 .L0 
     /tmp/cchsaaga.s:26     .text:0000000000000010 .L0 
     /tmp/cchsaaga.s:29     .text:0000000000000018 .L0 
     /tmp/cchsaaga.s:30     .text:0000000000000018 .L0 
     /tmp/cchsaaga.s:33     .text:000000000000001c .L0 
     /tmp/cchsaaga.s:36     .text:0000000000000020 .L0 
     /tmp/cchsaaga.s:38     .text:0000000000000024 .L0 
     /tmp/cchsaaga.s:39     .text:0000000000000024 .L0 
   src/syscall_c.cpp:18     .text:0000000000000028 .L0 
     /tmp/cchsaaga.s:46     .text:000000000000002c .L0 
     /tmp/cchsaaga.s:48     .text:000000000000002c .L0 
   src/syscall_c.cpp:19     .text:0000000000000030 .L0 
     /tmp/cchsaaga.s:55     .text:0000000000000034 .L0 
   src/syscall_c.cpp:21     .text:0000000000000034 .L0 
     /tmp/cchsaaga.s:60     .text:0000000000000038 .L0 
   src/syscall_c.cpp:23     .text:0000000000000038 .L0 
     /tmp/cchsaaga.s:67     .text:0000000000000040 .L0 
     /tmp/cchsaaga.s:68     .text:0000000000000040 .L0 
     /tmp/cchsaaga.s:70     .text:0000000000000044 .L0 
     /tmp/cchsaaga.s:71     .text:0000000000000048 .L0 
     /tmp/cchsaaga.s:72     .text:0000000000000048 .L0 
     /tmp/cchsaaga.s:74     .text:000000000000004c .L0 
     /tmp/cchsaaga.s:76     .text:0000000000000050 .L0 
     /tmp/cchsaaga.s:82     .text:0000000000000050 _Z8mem_freePv
     /tmp/cchsaaga.s:85     .text:0000000000000050 .L0 
     /tmp/cchsaaga.s:87     .text:0000000000000050 .L0 
     /tmp/cchsaaga.s:88     .text:0000000000000054 .L0 
     /tmp/cchsaaga.s:90     .text:0000000000000058 .L0 
     /tmp/cchsaaga.s:92     .text:000000000000005c .L0 
     /tmp/cchsaaga.s:94     .text:000000000000005c .L0 
     /tmp/cchsaaga.s:95     .text:000000000000005c .L0 
     /tmp/cchsaaga.s:96     .text:000000000000005c .L0 
     /tmp/cchsaaga.s:99     .text:0000000000000064 .L0 
   src/syscall_c.cpp:35     .text:0000000000000064 .L0 
     /tmp/cchsaaga.s:105    .text:0000000000000068 .L0 
     /tmp/cchsaaga.s:107    .text:0000000000000068 .L0 
   src/syscall_c.cpp:36     .text:000000000000006c .L0 
     /tmp/cchsaaga.s:114    .text:0000000000000070 .L0 
   src/syscall_c.cpp:38     .text:0000000000000070 .L0 
     /tmp/cchsaaga.s:119    .text:0000000000000074 .L0 
   src/syscall_c.cpp:41     .text:0000000000000074 .L0 
     /tmp/cchsaaga.s:126    .text:000000000000007c .L0 
     /tmp/cchsaaga.s:127    .text:000000000000007c .L0 
     /tmp/cchsaaga.s:130    .text:0000000000000080 .L0 
     /tmp/cchsaaga.s:132    .text:0000000000000088 .L0 
     /tmp/cchsaaga.s:133    .text:0000000000000088 .L0 
     /tmp/cchsaaga.s:135    .text:000000000000008c .L0 
GAS LISTING /tmp/cchsaaga.s 			page 21


     /tmp/cchsaaga.s:137    .text:0000000000000090 .L0 
     /tmp/cchsaaga.s:143    .text:0000000000000090 _Z13thread_createPP3TCBPFvPvES2_
     /tmp/cchsaaga.s:146    .text:0000000000000090 .L0 
     /tmp/cchsaaga.s:148    .text:0000000000000090 .L0 
     /tmp/cchsaaga.s:149    .text:0000000000000094 .L0 
     /tmp/cchsaaga.s:153    .text:00000000000000a0 .L0 
     /tmp/cchsaaga.s:154    .text:00000000000000a0 .L0 
     /tmp/cchsaaga.s:155    .text:00000000000000a0 .L0 
     /tmp/cchsaaga.s:157    .text:00000000000000a4 .L0 
     /tmp/cchsaaga.s:160    .text:00000000000000a8 .L0 
     /tmp/cchsaaga.s:161    .text:00000000000000a8 .L0 
     /tmp/cchsaaga.s:164    .text:00000000000000ac .L0 
     /tmp/cchsaaga.s:165    .text:00000000000000ac .L0 
     /tmp/cchsaaga.s:166    .text:00000000000000ac .L0 
     /tmp/cchsaaga.s:168    .text:00000000000000b0 .L0 
     /tmp/cchsaaga.s:169    .text:00000000000000b0 .L0 
     /tmp/cchsaaga.s:170    .text:00000000000000b0 .L0 
     /tmp/cchsaaga.s:175    .text:00000000000000bc .L0 
     /tmp/cchsaaga.s:178    .text:00000000000000c0 .L0 
     /tmp/cchsaaga.s:179    .text:00000000000000c0 .L0 
     /tmp/cchsaaga.s:180    .text:00000000000000c0 .L0 
     /tmp/cchsaaga.s:183    .text:00000000000000c8 .L0 
     /tmp/cchsaaga.s:184    .text:00000000000000c8 .L0 
   src/syscall_c.cpp:64     .text:00000000000000cc .L0 
     /tmp/cchsaaga.s:191    .text:00000000000000d0 .L0 
     /tmp/cchsaaga.s:193    .text:00000000000000d0 .L0 
   src/syscall_c.cpp:65     .text:00000000000000d4 .L0 
     /tmp/cchsaaga.s:200    .text:00000000000000d8 .L0 
   src/syscall_c.cpp:66     .text:00000000000000d8 .L0 
     /tmp/cchsaaga.s:205    .text:00000000000000dc .L0 
     /tmp/cchsaaga.s:207    .text:00000000000000dc .L0 
   src/syscall_c.cpp:67     .text:00000000000000e0 .L0 
     /tmp/cchsaaga.s:214    .text:00000000000000e4 .L0 
     /tmp/cchsaaga.s:216    .text:00000000000000e4 .L0 
   src/syscall_c.cpp:68     .text:00000000000000e8 .L0 
     /tmp/cchsaaga.s:223    .text:00000000000000ec .L0 
   src/syscall_c.cpp:70     .text:00000000000000ec .L0 
     /tmp/cchsaaga.s:228    .text:00000000000000f0 .L0 
   src/syscall_c.cpp:72     .text:00000000000000f0 .L0 
     /tmp/cchsaaga.s:235    .text:00000000000000f8 .L0 
     /tmp/cchsaaga.s:236    .text:00000000000000f8 .L0 
     /tmp/cchsaaga.s:238    .text:00000000000000fc .L0 
     /tmp/cchsaaga.s:240    .text:0000000000000104 .L0 
     /tmp/cchsaaga.s:242    .text:0000000000000108 .L0 
     /tmp/cchsaaga.s:243    .text:0000000000000108 .L0 
     /tmp/cchsaaga.s:245    .text:000000000000010c .L0 
     /tmp/cchsaaga.s:248    .text:0000000000000110 .L0 
     /tmp/cchsaaga.s:250    .text:0000000000000114 .L0 
     /tmp/cchsaaga.s:256    .text:0000000000000114 _Z11thread_exitv
     /tmp/cchsaaga.s:259    .text:0000000000000114 .L0 
     /tmp/cchsaaga.s:260    .text:0000000000000114 .L0 
     /tmp/cchsaaga.s:261    .text:0000000000000118 .L0 
     /tmp/cchsaaga.s:263    .text:000000000000011c .L0 
     /tmp/cchsaaga.s:265    .text:0000000000000120 .L0 
     /tmp/cchsaaga.s:267    .text:0000000000000120 .L0 
     /tmp/cchsaaga.s:268    .text:0000000000000120 .L0 
     /tmp/cchsaaga.s:269    .text:0000000000000120 .L0 
GAS LISTING /tmp/cchsaaga.s 			page 22


     /tmp/cchsaaga.s:272    .text:0000000000000128 .L0 
     /tmp/cchsaaga.s:273    .text:0000000000000128 .L0 
   src/syscall_c.cpp:82     .text:000000000000012c .L0 
     /tmp/cchsaaga.s:280    .text:0000000000000130 .L0 
   src/syscall_c.cpp:84     .text:0000000000000130 .L0 
     /tmp/cchsaaga.s:285    .text:0000000000000134 .L0 
   src/syscall_c.cpp:86     .text:0000000000000134 .L0 
     /tmp/cchsaaga.s:292    .text:000000000000013c .L0 
     /tmp/cchsaaga.s:293    .text:000000000000013c .L0 
     /tmp/cchsaaga.s:295    .text:0000000000000140 .L0 
     /tmp/cchsaaga.s:297    .text:0000000000000148 .L0 
     /tmp/cchsaaga.s:298    .text:0000000000000148 .L0 
     /tmp/cchsaaga.s:300    .text:000000000000014c .L0 
     /tmp/cchsaaga.s:302    .text:0000000000000150 .L0 
     /tmp/cchsaaga.s:308    .text:0000000000000150 _Z15thread_dispatchv
     /tmp/cchsaaga.s:311    .text:0000000000000150 .L0 
     /tmp/cchsaaga.s:312    .text:0000000000000150 .L0 
     /tmp/cchsaaga.s:313    .text:0000000000000154 .L0 
     /tmp/cchsaaga.s:315    .text:0000000000000158 .L0 
     /tmp/cchsaaga.s:317    .text:000000000000015c .L0 
     /tmp/cchsaaga.s:319    .text:000000000000015c .L0 
     /tmp/cchsaaga.s:320    .text:000000000000015c .L0 
     /tmp/cchsaaga.s:323    .text:0000000000000164 .L0 
     /tmp/cchsaaga.s:324    .text:0000000000000164 .L0 
   src/syscall_c.cpp:95     .text:0000000000000168 .L0 
     /tmp/cchsaaga.s:331    .text:000000000000016c .L0 
   src/syscall_c.cpp:97     .text:000000000000016c .L0 
     /tmp/cchsaaga.s:337    .text:0000000000000170 .L0 
     /tmp/cchsaaga.s:338    .text:0000000000000174 .L0 
     /tmp/cchsaaga.s:339    .text:0000000000000174 .L0 
     /tmp/cchsaaga.s:341    .text:0000000000000178 .L0 
     /tmp/cchsaaga.s:343    .text:000000000000017c .L0 
     /tmp/cchsaaga.s:349    .text:000000000000017c _Z4sendP3TCBPc
     /tmp/cchsaaga.s:352    .text:000000000000017c .L0 
     /tmp/cchsaaga.s:354    .text:000000000000017c .L0 
     /tmp/cchsaaga.s:355    .text:0000000000000180 .L0 
     /tmp/cchsaaga.s:357    .text:0000000000000184 .L0 
     /tmp/cchsaaga.s:359    .text:0000000000000188 .L0 
     /tmp/cchsaaga.s:361    .text:0000000000000188 .L0 
     /tmp/cchsaaga.s:362    .text:0000000000000188 .L0 
     /tmp/cchsaaga.s:365    .text:0000000000000190 .L0 
   src/syscall_c.cpp:104    .text:0000000000000190 .L0 
     /tmp/cchsaaga.s:371    .text:0000000000000194 .L0 
   src/syscall_c.cpp:105    .text:0000000000000194 .L0 
     /tmp/cchsaaga.s:376    .text:0000000000000198 .L0 
     /tmp/cchsaaga.s:378    .text:0000000000000198 .L0 
   src/syscall_c.cpp:106    .text:000000000000019c .L0 
     /tmp/cchsaaga.s:385    .text:00000000000001a0 .L0 
   src/syscall_c.cpp:108    .text:00000000000001a0 .L0 
     /tmp/cchsaaga.s:391    .text:00000000000001a4 .L0 
     /tmp/cchsaaga.s:392    .text:00000000000001a8 .L0 
     /tmp/cchsaaga.s:393    .text:00000000000001a8 .L0 
     /tmp/cchsaaga.s:395    .text:00000000000001ac .L0 
     /tmp/cchsaaga.s:397    .text:00000000000001b0 .L0 
     /tmp/cchsaaga.s:403    .text:00000000000001b0 _Z7receivev
     /tmp/cchsaaga.s:406    .text:00000000000001b0 .L0 
     /tmp/cchsaaga.s:407    .text:00000000000001b0 .L0 
GAS LISTING /tmp/cchsaaga.s 			page 23


     /tmp/cchsaaga.s:408    .text:00000000000001b4 .L0 
     /tmp/cchsaaga.s:410    .text:00000000000001b8 .L0 
     /tmp/cchsaaga.s:412    .text:00000000000001bc .L0 
     /tmp/cchsaaga.s:414    .text:00000000000001bc .L0 
     /tmp/cchsaaga.s:415    .text:00000000000001bc .L0 
     /tmp/cchsaaga.s:416    .text:00000000000001bc .L0 
     /tmp/cchsaaga.s:419    .text:00000000000001c4 .L0 
     /tmp/cchsaaga.s:420    .text:00000000000001c4 .L0 
   src/syscall_c.cpp:116    .text:00000000000001c8 .L0 
     /tmp/cchsaaga.s:427    .text:00000000000001cc .L0 
   src/syscall_c.cpp:118    .text:00000000000001cc .L0 
     /tmp/cchsaaga.s:432    .text:00000000000001d0 .L0 
   src/syscall_c.cpp:120    .text:00000000000001d0 .L0 
     /tmp/cchsaaga.s:439    .text:00000000000001d8 .L0 
     /tmp/cchsaaga.s:440    .text:00000000000001d8 .L0 
     /tmp/cchsaaga.s:442    .text:00000000000001dc .L0 
     /tmp/cchsaaga.s:443    .text:00000000000001e0 .L0 
     /tmp/cchsaaga.s:444    .text:00000000000001e0 .L0 
     /tmp/cchsaaga.s:446    .text:00000000000001e4 .L0 
     /tmp/cchsaaga.s:448    .text:00000000000001e8 .L0 
     /tmp/cchsaaga.s:454    .text:00000000000001e8 _Z8sem_openPP11MySemaphorej
     /tmp/cchsaaga.s:457    .text:00000000000001e8 .L0 
     /tmp/cchsaaga.s:459    .text:00000000000001e8 .L0 
     /tmp/cchsaaga.s:460    .text:00000000000001ec .L0 
     /tmp/cchsaaga.s:462    .text:00000000000001f0 .L0 
     /tmp/cchsaaga.s:464    .text:00000000000001f4 .L0 
     /tmp/cchsaaga.s:466    .text:00000000000001f4 .L0 
     /tmp/cchsaaga.s:467    .text:00000000000001f4 .L0 
     /tmp/cchsaaga.s:468    .text:00000000000001f4 .L0 
     /tmp/cchsaaga.s:471    .text:00000000000001fc .L0 
   src/syscall_c.cpp:130    .text:00000000000001fc .L0 
     /tmp/cchsaaga.s:477    .text:0000000000000200 .L0 
   src/syscall_c.cpp:131    .text:0000000000000200 .L0 
     /tmp/cchsaaga.s:482    .text:0000000000000204 .L0 
     /tmp/cchsaaga.s:484    .text:0000000000000204 .L0 
   src/syscall_c.cpp:132    .text:0000000000000208 .L0 
     /tmp/cchsaaga.s:491    .text:000000000000020c .L0 
   src/syscall_c.cpp:134    .text:000000000000020c .L0 
     /tmp/cchsaaga.s:496    .text:0000000000000210 .L0 
   src/syscall_c.cpp:136    .text:0000000000000210 .L0 
     /tmp/cchsaaga.s:503    .text:0000000000000218 .L0 
     /tmp/cchsaaga.s:504    .text:0000000000000218 .L0 
     /tmp/cchsaaga.s:507    .text:000000000000021c .L0 
     /tmp/cchsaaga.s:509    .text:0000000000000224 .L0 
     /tmp/cchsaaga.s:510    .text:0000000000000224 .L0 
     /tmp/cchsaaga.s:512    .text:0000000000000228 .L0 
     /tmp/cchsaaga.s:514    .text:000000000000022c .L0 
     /tmp/cchsaaga.s:520    .text:000000000000022c _Z9sem_closeP11MySemaphore
     /tmp/cchsaaga.s:523    .text:000000000000022c .L0 
     /tmp/cchsaaga.s:525    .text:000000000000022c .L0 
     /tmp/cchsaaga.s:526    .text:0000000000000230 .L0 
     /tmp/cchsaaga.s:528    .text:0000000000000234 .L0 
     /tmp/cchsaaga.s:530    .text:0000000000000238 .L0 
     /tmp/cchsaaga.s:532    .text:0000000000000238 .L0 
     /tmp/cchsaaga.s:533    .text:0000000000000238 .L0 
     /tmp/cchsaaga.s:534    .text:0000000000000238 .L0 
     /tmp/cchsaaga.s:537    .text:0000000000000240 .L0 
GAS LISTING /tmp/cchsaaga.s 			page 24


   src/syscall_c.cpp:146    .text:0000000000000240 .L0 
     /tmp/cchsaaga.s:543    .text:0000000000000244 .L0 
     /tmp/cchsaaga.s:545    .text:0000000000000244 .L0 
   src/syscall_c.cpp:147    .text:0000000000000248 .L0 
     /tmp/cchsaaga.s:552    .text:000000000000024c .L0 
   src/syscall_c.cpp:149    .text:000000000000024c .L0 
     /tmp/cchsaaga.s:557    .text:0000000000000250 .L0 
   src/syscall_c.cpp:151    .text:0000000000000250 .L0 
     /tmp/cchsaaga.s:564    .text:0000000000000258 .L0 
     /tmp/cchsaaga.s:565    .text:0000000000000258 .L0 
     /tmp/cchsaaga.s:568    .text:000000000000025c .L0 
     /tmp/cchsaaga.s:570    .text:0000000000000264 .L0 
     /tmp/cchsaaga.s:571    .text:0000000000000264 .L0 
     /tmp/cchsaaga.s:573    .text:0000000000000268 .L0 
     /tmp/cchsaaga.s:575    .text:000000000000026c .L0 
     /tmp/cchsaaga.s:581    .text:000000000000026c _Z8sem_waitP11MySemaphore
     /tmp/cchsaaga.s:584    .text:000000000000026c .L0 
     /tmp/cchsaaga.s:586    .text:000000000000026c .L0 
     /tmp/cchsaaga.s:587    .text:0000000000000270 .L0 
     /tmp/cchsaaga.s:589    .text:0000000000000274 .L0 
     /tmp/cchsaaga.s:591    .text:0000000000000278 .L0 
     /tmp/cchsaaga.s:593    .text:0000000000000278 .L0 
     /tmp/cchsaaga.s:594    .text:0000000000000278 .L0 
     /tmp/cchsaaga.s:595    .text:0000000000000278 .L0 
     /tmp/cchsaaga.s:598    .text:0000000000000280 .L0 
   src/syscall_c.cpp:161    .text:0000000000000280 .L0 
     /tmp/cchsaaga.s:604    .text:0000000000000284 .L0 
     /tmp/cchsaaga.s:606    .text:0000000000000284 .L0 
   src/syscall_c.cpp:162    .text:0000000000000288 .L0 
     /tmp/cchsaaga.s:613    .text:000000000000028c .L0 
   src/syscall_c.cpp:164    .text:000000000000028c .L0 
     /tmp/cchsaaga.s:618    .text:0000000000000290 .L0 
   src/syscall_c.cpp:166    .text:0000000000000290 .L0 
     /tmp/cchsaaga.s:625    .text:0000000000000298 .L0 
     /tmp/cchsaaga.s:626    .text:0000000000000298 .L0 
     /tmp/cchsaaga.s:629    .text:000000000000029c .L0 
     /tmp/cchsaaga.s:631    .text:00000000000002a4 .L0 
     /tmp/cchsaaga.s:632    .text:00000000000002a4 .L0 
     /tmp/cchsaaga.s:634    .text:00000000000002a8 .L0 
     /tmp/cchsaaga.s:636    .text:00000000000002ac .L0 
     /tmp/cchsaaga.s:642    .text:00000000000002ac _Z10sem_signalP11MySemaphore
     /tmp/cchsaaga.s:645    .text:00000000000002ac .L0 
     /tmp/cchsaaga.s:647    .text:00000000000002ac .L0 
     /tmp/cchsaaga.s:648    .text:00000000000002b0 .L0 
     /tmp/cchsaaga.s:650    .text:00000000000002b4 .L0 
     /tmp/cchsaaga.s:652    .text:00000000000002b8 .L0 
     /tmp/cchsaaga.s:654    .text:00000000000002b8 .L0 
     /tmp/cchsaaga.s:655    .text:00000000000002b8 .L0 
     /tmp/cchsaaga.s:656    .text:00000000000002b8 .L0 
     /tmp/cchsaaga.s:659    .text:00000000000002c0 .L0 
   src/syscall_c.cpp:176    .text:00000000000002c0 .L0 
     /tmp/cchsaaga.s:665    .text:00000000000002c4 .L0 
     /tmp/cchsaaga.s:667    .text:00000000000002c4 .L0 
   src/syscall_c.cpp:177    .text:00000000000002c8 .L0 
     /tmp/cchsaaga.s:674    .text:00000000000002cc .L0 
   src/syscall_c.cpp:179    .text:00000000000002cc .L0 
     /tmp/cchsaaga.s:679    .text:00000000000002d0 .L0 
GAS LISTING /tmp/cchsaaga.s 			page 25


   src/syscall_c.cpp:181    .text:00000000000002d0 .L0 
     /tmp/cchsaaga.s:686    .text:00000000000002d8 .L0 
     /tmp/cchsaaga.s:687    .text:00000000000002d8 .L0 
     /tmp/cchsaaga.s:690    .text:00000000000002dc .L0 
     /tmp/cchsaaga.s:692    .text:00000000000002e4 .L0 
     /tmp/cchsaaga.s:693    .text:00000000000002e4 .L0 
     /tmp/cchsaaga.s:695    .text:00000000000002e8 .L0 
     /tmp/cchsaaga.s:697    .text:00000000000002ec .L0 
     /tmp/cchsaaga.s:703    .text:00000000000002ec _Z11sem_trywaitP11MySemaphore
     /tmp/cchsaaga.s:706    .text:00000000000002ec .L0 
     /tmp/cchsaaga.s:708    .text:00000000000002ec .L0 
     /tmp/cchsaaga.s:709    .text:00000000000002f0 .L0 
     /tmp/cchsaaga.s:711    .text:00000000000002f4 .L0 
     /tmp/cchsaaga.s:713    .text:00000000000002f8 .L0 
     /tmp/cchsaaga.s:715    .text:00000000000002f8 .L0 
     /tmp/cchsaaga.s:716    .text:00000000000002f8 .L0 
     /tmp/cchsaaga.s:717    .text:00000000000002f8 .L0 
     /tmp/cchsaaga.s:720    .text:0000000000000300 .L0 
   src/syscall_c.cpp:191    .text:0000000000000300 .L0 
     /tmp/cchsaaga.s:726    .text:0000000000000304 .L0 
     /tmp/cchsaaga.s:728    .text:0000000000000304 .L0 
   src/syscall_c.cpp:192    .text:0000000000000308 .L0 
     /tmp/cchsaaga.s:735    .text:000000000000030c .L0 
   src/syscall_c.cpp:194    .text:000000000000030c .L0 
     /tmp/cchsaaga.s:740    .text:0000000000000310 .L0 
   src/syscall_c.cpp:196    .text:0000000000000310 .L0 
     /tmp/cchsaaga.s:747    .text:0000000000000318 .L0 
     /tmp/cchsaaga.s:748    .text:0000000000000318 .L0 
     /tmp/cchsaaga.s:751    .text:000000000000031c .L0 
     /tmp/cchsaaga.s:753    .text:0000000000000324 .L0 
     /tmp/cchsaaga.s:754    .text:0000000000000324 .L0 
     /tmp/cchsaaga.s:756    .text:0000000000000328 .L0 
     /tmp/cchsaaga.s:758    .text:000000000000032c .L0 
     /tmp/cchsaaga.s:764    .text:000000000000032c _Z4getcv
     /tmp/cchsaaga.s:767    .text:000000000000032c .L0 
     /tmp/cchsaaga.s:768    .text:000000000000032c .L0 
     /tmp/cchsaaga.s:769    .text:0000000000000330 .L0 
     /tmp/cchsaaga.s:771    .text:0000000000000334 .L0 
     /tmp/cchsaaga.s:773    .text:0000000000000338 .L0 
     /tmp/cchsaaga.s:775    .text:0000000000000338 .L0 
     /tmp/cchsaaga.s:776    .text:0000000000000338 .L0 
     /tmp/cchsaaga.s:777    .text:0000000000000338 .L0 
     /tmp/cchsaaga.s:780    .text:0000000000000340 .L0 
     /tmp/cchsaaga.s:781    .text:0000000000000340 .L0 
   src/syscall_c.cpp:206    .text:0000000000000344 .L0 
     /tmp/cchsaaga.s:788    .text:0000000000000348 .L0 
   src/syscall_c.cpp:208    .text:0000000000000348 .L0 
     /tmp/cchsaaga.s:793    .text:000000000000034c .L0 
   src/syscall_c.cpp:210    .text:000000000000034c .L0 
     /tmp/cchsaaga.s:800    .text:0000000000000354 .L0 
     /tmp/cchsaaga.s:801    .text:0000000000000354 .L0 
     /tmp/cchsaaga.s:803    .text:0000000000000358 .L0 
     /tmp/cchsaaga.s:805    .text:0000000000000360 .L0 
     /tmp/cchsaaga.s:806    .text:0000000000000360 .L0 
     /tmp/cchsaaga.s:808    .text:0000000000000364 .L0 
     /tmp/cchsaaga.s:810    .text:0000000000000368 .L0 
     /tmp/cchsaaga.s:816    .text:0000000000000368 _Z4putcc
GAS LISTING /tmp/cchsaaga.s 			page 26


     /tmp/cchsaaga.s:819    .text:0000000000000368 .L0 
     /tmp/cchsaaga.s:821    .text:0000000000000368 .L0 
     /tmp/cchsaaga.s:822    .text:000000000000036c .L0 
     /tmp/cchsaaga.s:824    .text:0000000000000370 .L0 
     /tmp/cchsaaga.s:826    .text:0000000000000374 .L0 
     /tmp/cchsaaga.s:828    .text:0000000000000374 .L0 
     /tmp/cchsaaga.s:829    .text:0000000000000374 .L0 
     /tmp/cchsaaga.s:832    .text:000000000000037c .L0 
   src/syscall_c.cpp:219    .text:000000000000037c .L0 
     /tmp/cchsaaga.s:838    .text:0000000000000380 .L0 
     /tmp/cchsaaga.s:840    .text:0000000000000380 .L0 
   src/syscall_c.cpp:220    .text:0000000000000384 .L0 
     /tmp/cchsaaga.s:847    .text:0000000000000388 .L0 
   src/syscall_c.cpp:222    .text:0000000000000388 .L0 
     /tmp/cchsaaga.s:853    .text:000000000000038c .L0 
     /tmp/cchsaaga.s:854    .text:0000000000000390 .L0 
     /tmp/cchsaaga.s:855    .text:0000000000000390 .L0 
     /tmp/cchsaaga.s:857    .text:0000000000000394 .L0 
     /tmp/cchsaaga.s:859    .text:0000000000000398 .L0 
     /tmp/cchsaaga.s:865    .text:0000000000000398 .L0 
     /tmp/cchsaaga.s:1617   .debug_abbrev:0000000000000000 .Ldebug_abbrev0
     /tmp/cchsaaga.s:2269   .debug_str:00000000000001b2 .LASF62
     /tmp/cchsaaga.s:2331   .debug_str:0000000000000420 .LASF63
     /tmp/cchsaaga.s:2275   .debug_str:000000000000029b .LASF64
     /tmp/cchsaaga.s:5      .text:0000000000000000 .Ltext0
     /tmp/cchsaaga.s:862    .text:0000000000000398 .Letext0
     /tmp/cchsaaga.s:2203   .debug_line:0000000000000000 .Ldebug_line0
     /tmp/cchsaaga.s:2281   .debug_str:00000000000002d3 .LASF0
     /tmp/cchsaaga.s:2253   .debug_str:0000000000000149 .LASF1
     /tmp/cchsaaga.s:2243   .debug_str:000000000000010b .LASF2
     /tmp/cchsaaga.s:2223   .debug_str:0000000000000078 .LASF4
     /tmp/cchsaaga.s:2251   .debug_str:0000000000000137 .LASF3
     /tmp/cchsaaga.s:2209   .debug_str:000000000000001b .LASF5
     /tmp/cchsaaga.s:2207   .debug_str:0000000000000008 .LASF6
     /tmp/cchsaaga.s:2237   .debug_str:00000000000000ce .LASF7
     /tmp/cchsaaga.s:2291   .debug_str:0000000000000304 .LASF8
     /tmp/cchsaaga.s:2221   .debug_str:000000000000006a .LASF9
     /tmp/cchsaaga.s:2333   .debug_str:0000000000000432 .LASF10
     /tmp/cchsaaga.s:2239   .debug_str:00000000000000e1 .LASF11
     /tmp/cchsaaga.s:2319   .debug_str:00000000000003d7 .LASF12
     /tmp/cchsaaga.s:2297   .debug_str:0000000000000333 .LASF13
     /tmp/cchsaaga.s:2257   .debug_str:0000000000000165 .LASF14
     /tmp/cchsaaga.s:2231   .debug_str:0000000000000096 .LASF15
     /tmp/cchsaaga.s:2293   .debug_str:0000000000000314 .LASF16
     /tmp/cchsaaga.s:2295   .debug_str:000000000000032a .LASF17
     /tmp/cchsaaga.s:2213   .debug_str:000000000000002f .LASF18
     /tmp/cchsaaga.s:2317   .debug_str:00000000000003cb .LASF19
     /tmp/cchsaaga.s:2305   .debug_str:000000000000037d .LASF39
     /tmp/cchsaaga.s:2255   .debug_str:000000000000015c .LASF41
     /tmp/cchsaaga.s:817    .text:0000000000000368 .LFB13
     /tmp/cchsaaga.s:860    .text:0000000000000398 .LFE13
     /tmp/cchsaaga.s:2307   .debug_str:0000000000000382 .LASF20
     /tmp/cchsaaga.s:2287   .debug_str:00000000000002eb .LASF21
     /tmp/cchsaaga.s:2245   .debug_str:0000000000000119 .LASF23
     /tmp/cchsaaga.s:2325   .debug_str:00000000000003fd .LASF25
     /tmp/cchsaaga.s:765    .text:000000000000032c .LFB12
     /tmp/cchsaaga.s:811    .text:0000000000000368 .LFE12
GAS LISTING /tmp/cchsaaga.s 			page 27


     /tmp/cchsaaga.s:2259   .debug_str:0000000000000171 .LASF22
     /tmp/cchsaaga.s:2329   .debug_str:0000000000000414 .LASF24
     /tmp/cchsaaga.s:2217   .debug_str:0000000000000044 .LASF26
     /tmp/cchsaaga.s:704    .text:00000000000002ec .LFB11
     /tmp/cchsaaga.s:759    .text:000000000000032c .LFE11
     /tmp/cchsaaga.s:2017   .debug_loc:0000000000000000 .LLST10
     /tmp/cchsaaga.s:2265   .debug_str:0000000000000199 .LASF27
     /tmp/cchsaaga.s:2235   .debug_str:00000000000000b1 .LASF28
     /tmp/cchsaaga.s:643    .text:00000000000002ac .LFB10
     /tmp/cchsaaga.s:698    .text:00000000000002ec .LFE10
     /tmp/cchsaaga.s:2031   .debug_loc:0000000000000039 .LLST9
     /tmp/cchsaaga.s:2273   .debug_str:0000000000000292 .LASF29
     /tmp/cchsaaga.s:2311   .debug_str:0000000000000392 .LASF30
     /tmp/cchsaaga.s:582    .text:000000000000026c .LFB9
     /tmp/cchsaaga.s:637    .text:00000000000002ac .LFE9
     /tmp/cchsaaga.s:2045   .debug_loc:0000000000000072 .LLST8
     /tmp/cchsaaga.s:2249   .debug_str:000000000000012d .LASF31
     /tmp/cchsaaga.s:2241   .debug_str:00000000000000f0 .LASF32
     /tmp/cchsaaga.s:521    .text:000000000000022c .LFB8
     /tmp/cchsaaga.s:576    .text:000000000000026c .LFE8
     /tmp/cchsaaga.s:2261   .debug_str:000000000000017d .LASF33
     /tmp/cchsaaga.s:2059   .debug_loc:00000000000000ab .LLST7
     /tmp/cchsaaga.s:2309   .debug_str:0000000000000389 .LASF34
     /tmp/cchsaaga.s:2271   .debug_str:0000000000000276 .LASF35
     /tmp/cchsaaga.s:455    .text:00000000000001e8 .LFB7
     /tmp/cchsaaga.s:515    .text:000000000000022c .LFE7
     /tmp/cchsaaga.s:2073   .debug_loc:00000000000000e4 .LLST6
     /tmp/cchsaaga.s:2229   .debug_str:0000000000000091 .LASF36
     /tmp/cchsaaga.s:2225   .debug_str:000000000000007f .LASF37
     /tmp/cchsaaga.s:2279   .debug_str:00000000000002c7 .LASF38
     /tmp/cchsaaga.s:404    .text:00000000000001b0 .LFB6
     /tmp/cchsaaga.s:449    .text:00000000000001e8 .LFE6
     /tmp/cchsaaga.s:2283   .debug_str:00000000000002e0 .LASF40
     /tmp/cchsaaga.s:2247   .debug_str:000000000000011e .LASF42
     /tmp/cchsaaga.s:350    .text:000000000000017c .LFB5
     /tmp/cchsaaga.s:398    .text:00000000000001b0 .LFE5
     /tmp/cchsaaga.s:2205   .debug_str:0000000000000000 .LASF43
     /tmp/cchsaaga.s:2301   .debug_str:000000000000034c .LASF44
     /tmp/cchsaaga.s:2263   .debug_str:0000000000000184 .LASF45
     /tmp/cchsaaga.s:309    .text:0000000000000150 .LFB4
     /tmp/cchsaaga.s:344    .text:000000000000017c .LFE4
     /tmp/cchsaaga.s:2321   .debug_str:00000000000003e7 .LASF46
     /tmp/cchsaaga.s:2315   .debug_str:00000000000003ba .LASF47
     /tmp/cchsaaga.s:257    .text:0000000000000114 .LFB3
     /tmp/cchsaaga.s:303    .text:0000000000000150 .LFE3
     /tmp/cchsaaga.s:2313   .debug_str:00000000000003ac .LASF48
     /tmp/cchsaaga.s:2303   .debug_str:000000000000035c .LASF49
     /tmp/cchsaaga.s:144    .text:0000000000000090 .LFB2
     /tmp/cchsaaga.s:251    .text:0000000000000114 .LFE2
     /tmp/cchsaaga.s:2087   .debug_loc:000000000000011d .LLST2
     /tmp/cchsaaga.s:2267   .debug_str:00000000000001a4 .LASF50
     /tmp/cchsaaga.s:2101   .debug_loc:0000000000000156 .LLST3
     /tmp/cchsaaga.s:2119   .debug_loc:00000000000001a2 .LLST4
     /tmp/cchsaaga.s:2211   .debug_str:0000000000000022 .LASF51
     /tmp/cchsaaga.s:2289   .debug_str:00000000000002f0 .LASF52
     /tmp/cchsaaga.s:2138   .debug_loc:00000000000001ef .LLST5
     /tmp/cchsaaga.s:2227   .debug_str:0000000000000087 .LASF53
GAS LISTING /tmp/cchsaaga.s 			page 28


     /tmp/cchsaaga.s:2285   .debug_str:00000000000002e5 .LASF54
     /tmp/cchsaaga.s:173    .text:00000000000000bc .LVL8
     /tmp/cchsaaga.s:2299   .debug_str:0000000000000343 .LASF55
     /tmp/cchsaaga.s:2277   .debug_str:00000000000002b9 .LASF56
     /tmp/cchsaaga.s:83     .text:0000000000000050 .LFB1
     /tmp/cchsaaga.s:138    .text:0000000000000090 .LFE1
     /tmp/cchsaaga.s:2219   .debug_str:0000000000000062 .LASF57
     /tmp/cchsaaga.s:2156   .debug_loc:000000000000023b .LLST1
     /tmp/cchsaaga.s:2323   .debug_str:00000000000003f3 .LASF58
     /tmp/cchsaaga.s:2327   .debug_str:0000000000000406 .LASF59
     /tmp/cchsaaga.s:10     .text:0000000000000000 .LFB0
     /tmp/cchsaaga.s:77     .text:0000000000000050 .LFE0
     /tmp/cchsaaga.s:2233   .debug_str:00000000000000ac .LASF60
     /tmp/cchsaaga.s:2170   .debug_loc:0000000000000274 .LLST0
     /tmp/cchsaaga.s:2215   .debug_str:0000000000000035 .LASF61
     /tmp/cchsaaga.s:707    .text:00000000000002ec .LVL20
     /tmp/cchsaaga.s:749    .text:000000000000031c .LVL21
     /tmp/cchsaaga.s:646    .text:00000000000002ac .LVL18
     /tmp/cchsaaga.s:688    .text:00000000000002dc .LVL19
     /tmp/cchsaaga.s:585    .text:000000000000026c .LVL16
     /tmp/cchsaaga.s:627    .text:000000000000029c .LVL17
     /tmp/cchsaaga.s:524    .text:000000000000022c .LVL14
     /tmp/cchsaaga.s:566    .text:000000000000025c .LVL15
     /tmp/cchsaaga.s:458    .text:00000000000001e8 .LVL12
     /tmp/cchsaaga.s:505    .text:000000000000021c .LVL13
     /tmp/cchsaaga.s:147    .text:0000000000000090 .LVL5
     /tmp/cchsaaga.s:171    .text:00000000000000b4 .LVL7
     /tmp/cchsaaga.s:246    .text:000000000000010c .LVL10
     /tmp/cchsaaga.s:176    .text:00000000000000c0 .LVL9
     /tmp/cchsaaga.s:163    .text:00000000000000ac .LVL6
     /tmp/cchsaaga.s:86     .text:0000000000000050 .LVL3
     /tmp/cchsaaga.s:128    .text:0000000000000080 .LVL4
     /tmp/cchsaaga.s:14     .text:0000000000000000 .LVL0
     /tmp/cchsaaga.s:31     .text:000000000000001c .LVL1
     /tmp/cchsaaga.s:34     .text:0000000000000020 .LVL2
     /tmp/cchsaaga.s:866    .debug_info:0000000000000000 .Ldebug_info0

NO UNDEFINED SYMBOLS
