GAS LISTING /tmp/ccvRVdeg.s 			page 1


   1              		.file	"tcb.cpp"
   2              		.option pic
   3              		.option norelax
   4              		.text
   5              	.Ltext0:
   6              		.align	2
   7              		.globl	_ZN3TCB13threadWrapperEv
   9              	_ZN3TCB13threadWrapperEv:
  10              	.LFB41:
  11              		.file 1 "src/tcb.cpp"
   1:src/tcb.cpp   **** //
   2:src/tcb.cpp   **** // Created by os on 5/17/24.
   3:src/tcb.cpp   **** //
   4:src/tcb.cpp   **** 
   5:src/tcb.cpp   **** #include "../h/tcb.hpp"
   6:src/tcb.cpp   **** #include "../h/riscv.hpp"
   7:src/tcb.cpp   **** #include "../h/printing.hpp"
   8:src/tcb.cpp   **** 
   9:src/tcb.cpp   **** TCB *TCB::running = nullptr;
  10:src/tcb.cpp   **** 
  11:src/tcb.cpp   **** int TCB::thread_create(thread_t* handle, void (*start_routine)(void*), void* arg, void* stack_space
  12:src/tcb.cpp   **** {
  13:src/tcb.cpp   **** 
  14:src/tcb.cpp   ****     *handle = new TCB(start_routine, arg, stack_space);
  15:src/tcb.cpp   **** 
  16:src/tcb.cpp   **** 
  17:src/tcb.cpp   ****     if(*handle == nullptr)
  18:src/tcb.cpp   ****     {
  19:src/tcb.cpp   ****         return -1;
  20:src/tcb.cpp   ****     }
  21:src/tcb.cpp   **** 
  22:src/tcb.cpp   ****     return 0;
  23:src/tcb.cpp   **** }
  24:src/tcb.cpp   **** 
  25:src/tcb.cpp   **** void TCB::thread_dispatch()
  26:src/tcb.cpp   **** {
  27:src/tcb.cpp   ****     TCB *old = running;
  28:src/tcb.cpp   ****     if (!old->isFinished()) { Scheduler::put(old); }
  29:src/tcb.cpp   ****     running = Scheduler::get();
  30:src/tcb.cpp   **** 
  31:src/tcb.cpp   ****     TCB::contextSwitch(&old->context, &running->context);
  32:src/tcb.cpp   **** }
  33:src/tcb.cpp   **** 
  34:src/tcb.cpp   **** void TCB::threadWrapper()
  35:src/tcb.cpp   **** {
  12              		.loc 1 35 1
  13              		.cfi_startproc
  14 0000 130101FE 		addi	sp,sp,-32
  15              		.cfi_def_cfa_offset 32
  16 0004 233C1100 		sd	ra,24(sp)
  17 0008 23388100 		sd	s0,16(sp)
  18 000c 23349100 		sd	s1,8(sp)
  19              		.cfi_offset 1, -8
  20              		.cfi_offset 8, -16
  21              		.cfi_offset 9, -24
  22 0010 13040102 		addi	s0,sp,32
  23              		.cfi_def_cfa 8, 0
GAS LISTING /tmp/ccvRVdeg.s 			page 2


  36:src/tcb.cpp   ****     Riscv::popSppSpie();
  24              		.loc 1 36 5
  25              		.loc 1 36 22 is_stmt 0
  26 0014 97000000 		call	_ZN5Riscv10popSppSpieEv@plt
  26      E7800000 
  27              	.LVL0:
  37:src/tcb.cpp   ****     running->body(running->arg);
  28              		.loc 1 37 5 is_stmt 1
  29              		.loc 1 37 14 is_stmt 0
  30 001c 97040000 		lla	s1,.LANCHOR0
  30      93840400 
  31 0024 83B70400 		ld	a5,0(s1)
  32 0028 03B70700 		ld	a4,0(a5)
  33              		.loc 1 37 18
  34 002c 03B58700 		ld	a0,8(a5)
  35 0030 E7000700 		jalr	a4
  36              	.LVL1:
  38:src/tcb.cpp   ****     running->setFinished(true);
  37              		.loc 1 38 5 is_stmt 1
  38              		.loc 1 38 25 is_stmt 0
  39 0034 83B70400 		ld	a5,0(s1)
  40              	.LVL2:
  41              	.LBB24:
  42              	.LBB25:
  43              		.file 2 "src/../h/tcb.hpp"
   1:src/../h/tcb.hpp **** //
   2:src/../h/tcb.hpp **** // Created by os on 5/17/24.
   3:src/../h/tcb.hpp **** //
   4:src/../h/tcb.hpp **** 
   5:src/../h/tcb.hpp **** #ifndef PROJECT_BASE_TCB_HPP
   6:src/../h/tcb.hpp **** #define PROJECT_BASE_TCB_HPP
   7:src/../h/tcb.hpp **** 
   8:src/../h/tcb.hpp **** #include "../lib/hw.h"
   9:src/../h/tcb.hpp **** #include "scheduler.hpp"
  10:src/../h/tcb.hpp **** #include "../h/syscall_cpp.hpp"
  11:src/../h/tcb.hpp **** #include "../h/MemoryAllocator.hpp"
  12:src/../h/tcb.hpp **** #include "../h/MySemaphore.hpp"
  13:src/../h/tcb.hpp **** 
  14:src/../h/tcb.hpp **** // Thread Control Block
  15:src/../h/tcb.hpp **** class TCB
  16:src/../h/tcb.hpp **** {
  17:src/../h/tcb.hpp **** 
  18:src/../h/tcb.hpp **** public:
  19:src/../h/tcb.hpp **** 
  20:src/../h/tcb.hpp ****     ~TCB() { MemoryAllocator::mem_free(stack); }
  21:src/../h/tcb.hpp ****     bool isFinished() const { return finished; }
  22:src/../h/tcb.hpp ****     void setFinished(bool value) { finished = value; }
  44              		.loc 2 22 36 is_stmt 1
  45              		.loc 2 22 45 is_stmt 0
  46 0038 13071000 		li	a4,1
  47 003c 2384E702 		sb	a4,40(a5)
  48              	.LVL3:
  49              	.LBE25:
  50              	.LBE24:
  39:src/tcb.cpp   ****     ::thread_dispatch();
  51              		.loc 1 39 5 is_stmt 1
  52              		.loc 1 39 22 is_stmt 0
GAS LISTING /tmp/ccvRVdeg.s 			page 3


  53 0040 97000000 		call	_Z15thread_dispatchv@plt
  53      E7800000 
  54              	.LVL4:
  40:src/tcb.cpp   ****     //TCB::thread_dispatch();
  41:src/tcb.cpp   **** }
  55              		.loc 1 41 1
  56 0048 83308101 		ld	ra,24(sp)
  57              		.cfi_restore 1
  58 004c 03340101 		ld	s0,16(sp)
  59              		.cfi_restore 8
  60              		.cfi_def_cfa 2, 32
  61 0050 83348100 		ld	s1,8(sp)
  62              		.cfi_restore 9
  63 0054 13010102 		addi	sp,sp,32
  64              		.cfi_def_cfa_offset 0
  65 0058 67800000 		jr	ra
  66              		.cfi_endproc
  67              	.LFE41:
  69              		.align	2
  70              		.globl	_ZN3TCB15thread_dispatchEv
  72              	_ZN3TCB15thread_dispatchEv:
  73              	.LFB40:
  26:src/tcb.cpp   ****     TCB *old = running;
  74              		.loc 1 26 1 is_stmt 1
  75              		.cfi_startproc
  76 005c 130101FE 		addi	sp,sp,-32
  77              		.cfi_def_cfa_offset 32
  78 0060 233C1100 		sd	ra,24(sp)
  79 0064 23388100 		sd	s0,16(sp)
  80 0068 23349100 		sd	s1,8(sp)
  81              		.cfi_offset 1, -8
  82              		.cfi_offset 8, -16
  83              		.cfi_offset 9, -24
  84 006c 13040102 		addi	s0,sp,32
  85              		.cfi_def_cfa 8, 0
  27:src/tcb.cpp   ****     if (!old->isFinished()) { Scheduler::put(old); }
  86              		.loc 1 27 5
  27:src/tcb.cpp   ****     if (!old->isFinished()) { Scheduler::put(old); }
  87              		.loc 1 27 10 is_stmt 0
  88 0070 97040000 		ld	s1,.LANCHOR0
  88      83B40400 
  89              	.LVL5:
  28:src/tcb.cpp   ****     running = Scheduler::get();
  90              		.loc 1 28 5 is_stmt 1
  91              	.LBB26:
  92              	.LBB27:
  21:src/../h/tcb.hpp ****     void setFinished(bool value) { finished = value; }
  93              		.loc 2 21 31
  21:src/../h/tcb.hpp ****     void setFinished(bool value) { finished = value; }
  94              		.loc 2 21 38 is_stmt 0
  95 0078 83C78402 		lbu	a5,40(s1)
  96              	.LVL6:
  97              	.LBE27:
  98              	.LBE26:
  28:src/tcb.cpp   ****     running = Scheduler::get();
  99              		.loc 1 28 5
 100 007c 638C0702 		beqz	a5,.L6
GAS LISTING /tmp/ccvRVdeg.s 			page 4


 101              	.L4:
  29:src/tcb.cpp   **** 
 102              		.loc 1 29 5 is_stmt 1
  29:src/tcb.cpp   **** 
 103              		.loc 1 29 29 is_stmt 0
 104 0080 97000000 		call	_ZN9Scheduler3getEv@plt
 104      E7800000 
 105              	.LVL7:
  29:src/tcb.cpp   **** 
 106              		.loc 1 29 13
 107 0088 97070000 		sd	a0,.LANCHOR0,a5
 107      23B0A700 
  31:src/tcb.cpp   **** }
 108              		.loc 1 31 5 is_stmt 1
  31:src/tcb.cpp   **** }
 109              		.loc 1 31 23 is_stmt 0
 110 0090 93058501 		addi	a1,a0,24
 111 0094 13858401 		addi	a0,s1,24
 112 0098 97000000 		call	_ZN3TCB13contextSwitchEPNS_7ContextES1_@plt
 112      E7800000 
 113              	.LVL8:
  32:src/tcb.cpp   **** 
 114              		.loc 1 32 1
 115 00a0 83308101 		ld	ra,24(sp)
 116              		.cfi_remember_state
 117              		.cfi_restore 1
 118 00a4 03340101 		ld	s0,16(sp)
 119              		.cfi_restore 8
 120              		.cfi_def_cfa 2, 32
 121 00a8 83348100 		ld	s1,8(sp)
 122              		.cfi_restore 9
 123              	.LVL9:
 124 00ac 13010102 		addi	sp,sp,32
 125              		.cfi_def_cfa_offset 0
 126 00b0 67800000 		jr	ra
 127              	.LVL10:
 128              	.L6:
 129              		.cfi_restore_state
  28:src/tcb.cpp   ****     running = Scheduler::get();
 130              		.loc 1 28 31 is_stmt 1 discriminator 1
  28:src/tcb.cpp   ****     running = Scheduler::get();
 131              		.loc 1 28 45 is_stmt 0 discriminator 1
 132 00b4 13850400 		mv	a0,s1
 133 00b8 97000000 		call	_ZN9Scheduler3putEP3TCB@plt
 133      E7800000 
 134              	.LVL11:
 135 00c0 6FF01FFC 		j	.L4
 136              		.cfi_endproc
 137              	.LFE40:
 139              		.align	2
 140              		.globl	_ZN3TCB11thread_exitEv
 142              	_ZN3TCB11thread_exitEv:
 143              	.LFB42:
  42:src/tcb.cpp   **** 
  43:src/tcb.cpp   **** int TCB::thread_exit()
  44:src/tcb.cpp   **** {
 144              		.loc 1 44 1 is_stmt 1
GAS LISTING /tmp/ccvRVdeg.s 			page 5


 145              		.cfi_startproc
 146 00c4 130101FF 		addi	sp,sp,-16
 147              		.cfi_def_cfa_offset 16
 148 00c8 23341100 		sd	ra,8(sp)
 149 00cc 23308100 		sd	s0,0(sp)
 150              		.cfi_offset 1, -8
 151              		.cfi_offset 8, -16
 152 00d0 13040101 		addi	s0,sp,16
 153              		.cfi_def_cfa 8, 0
  45:src/tcb.cpp   ****     running->setFinished(true);
 154              		.loc 1 45 5
 155              	.LVL12:
 156              	.LBB28:
 157              	.LBB29:
 158              		.loc 2 22 36
 159              		.loc 2 22 45 is_stmt 0
 160 00d4 97070000 		ld	a5,.LANCHOR0
 160      83B70700 
 161 00dc 13071000 		li	a4,1
 162 00e0 2384E702 		sb	a4,40(a5)
 163              	.LVL13:
 164              	.LBE29:
 165              	.LBE28:
  46:src/tcb.cpp   ****     ::thread_dispatch();
 166              		.loc 1 46 5 is_stmt 1
 167              		.loc 1 46 22 is_stmt 0
 168 00e4 97000000 		call	_Z15thread_dispatchv@plt
 168      E7800000 
 169              	.LVL14:
  47:src/tcb.cpp   ****     //TCB::thread_dispatch();
  48:src/tcb.cpp   ****     return 0;
 170              		.loc 1 48 5 is_stmt 1
  49:src/tcb.cpp   **** }
 171              		.loc 1 49 1 is_stmt 0
 172 00ec 13050000 		li	a0,0
 173 00f0 83308100 		ld	ra,8(sp)
 174              		.cfi_restore 1
 175 00f4 03340100 		ld	s0,0(sp)
 176              		.cfi_restore 8
 177              		.cfi_def_cfa 2, 16
 178 00f8 13010101 		addi	sp,sp,16
 179              		.cfi_def_cfa_offset 0
 180 00fc 67800000 		jr	ra
 181              		.cfi_endproc
 182              	.LFE42:
 184              		.align	2
 185              		.globl	_ZN3TCBnwEm
 187              	_ZN3TCBnwEm:
 188              	.LFB43:
  50:src/tcb.cpp   **** 
  51:src/tcb.cpp   **** void *TCB::operator new(size_t size)
  52:src/tcb.cpp   **** {
 189              		.loc 1 52 1 is_stmt 1
 190              		.cfi_startproc
 191              	.LVL15:
 192 0100 130101FF 		addi	sp,sp,-16
 193              		.cfi_def_cfa_offset 16
GAS LISTING /tmp/ccvRVdeg.s 			page 6


 194 0104 23341100 		sd	ra,8(sp)
 195 0108 23308100 		sd	s0,0(sp)
 196              		.cfi_offset 1, -8
 197              		.cfi_offset 8, -16
 198 010c 13040101 		addi	s0,sp,16
 199              		.cfi_def_cfa 8, 0
  53:src/tcb.cpp   ****     return (thread_t) MemoryAllocator::mem_alloc((sizeof(TCB) + MEM_BLOCK_SIZE - 1) / MEM_BLOCK_SIZ
 200              		.loc 1 53 5
 201              		.loc 1 53 49 is_stmt 0
 202 0110 13052000 		li	a0,2
 203              	.LVL16:
 204 0114 97000000 		call	_ZN15MemoryAllocator9mem_allocEm@plt
 204      E7800000 
 205              	.LVL17:
  54:src/tcb.cpp   **** }
 206              		.loc 1 54 1
 207 011c 83308100 		ld	ra,8(sp)
 208              		.cfi_restore 1
 209 0120 03340100 		ld	s0,0(sp)
 210              		.cfi_restore 8
 211              		.cfi_def_cfa 2, 16
 212 0124 13010101 		addi	sp,sp,16
 213              		.cfi_def_cfa_offset 0
 214 0128 67800000 		jr	ra
 215              		.cfi_endproc
 216              	.LFE43:
 218              		.align	2
 219              		.globl	_ZN3TCBdlEPv
 221              	_ZN3TCBdlEPv:
 222              	.LFB44:
  55:src/tcb.cpp   **** 
  56:src/tcb.cpp   **** void TCB::operator delete(void* address)
  57:src/tcb.cpp   **** {
 223              		.loc 1 57 1 is_stmt 1
 224              		.cfi_startproc
 225              	.LVL18:
 226 012c 130101FF 		addi	sp,sp,-16
 227              		.cfi_def_cfa_offset 16
 228 0130 23341100 		sd	ra,8(sp)
 229 0134 23308100 		sd	s0,0(sp)
 230              		.cfi_offset 1, -8
 231              		.cfi_offset 8, -16
 232 0138 13040101 		addi	s0,sp,16
 233              		.cfi_def_cfa 8, 0
  58:src/tcb.cpp   ****     MemoryAllocator::mem_free(address);
 234              		.loc 1 58 5
 235              		.loc 1 58 30 is_stmt 0
 236 013c 97000000 		call	_ZN15MemoryAllocator8mem_freeEPv@plt
 236      E7800000 
 237              	.LVL19:
  59:src/tcb.cpp   **** }
 238              		.loc 1 59 1
 239 0144 83308100 		ld	ra,8(sp)
 240              		.cfi_restore 1
 241 0148 03340100 		ld	s0,0(sp)
 242              		.cfi_restore 8
 243              		.cfi_def_cfa 2, 16
GAS LISTING /tmp/ccvRVdeg.s 			page 7


 244 014c 13010101 		addi	sp,sp,16
 245              		.cfi_def_cfa_offset 0
 246 0150 67800000 		jr	ra
 247              		.cfi_endproc
 248              	.LFE44:
 250              		.align	2
 251              		.globl	_ZN3TCB13thread_createEPPS_PFvPvES2_S2_
 253              	_ZN3TCB13thread_createEPPS_PFvPvES2_S2_:
 254              	.LFB39:
  12:src/tcb.cpp   **** 
 255              		.loc 1 12 1 is_stmt 1
 256              		.cfi_startproc
 257              		.cfi_personality 0x9b,DW.ref.__gxx_personality_v0
 258              		.cfi_lsda 0x1b,.LLSDA39
 259              	.LVL20:
 260 0154 130101FC 		addi	sp,sp,-64
 261              		.cfi_def_cfa_offset 64
 262 0158 233C1102 		sd	ra,56(sp)
 263 015c 23388102 		sd	s0,48(sp)
 264 0160 23349102 		sd	s1,40(sp)
 265 0164 23302103 		sd	s2,32(sp)
 266 0168 233C3101 		sd	s3,24(sp)
 267 016c 23384101 		sd	s4,16(sp)
 268 0170 23345101 		sd	s5,8(sp)
 269              		.cfi_offset 1, -8
 270              		.cfi_offset 8, -16
 271              		.cfi_offset 9, -24
 272              		.cfi_offset 18, -32
 273              		.cfi_offset 19, -40
 274              		.cfi_offset 20, -48
 275              		.cfi_offset 21, -56
 276 0174 13040104 		addi	s0,sp,64
 277              		.cfi_def_cfa 8, 0
 278 0178 130A0500 		mv	s4,a0
 279 017c 93890500 		mv	s3,a1
 280 0180 930A0600 		mv	s5,a2
 281 0184 13890600 		mv	s2,a3
  14:src/tcb.cpp   **** 
 282              		.loc 1 14 5
  14:src/tcb.cpp   **** 
 283              		.loc 1 14 54 is_stmt 0
 284 0188 13050006 		li	a0,96
 285              	.LVL21:
 286              	.LEHB0:
 287 018c 97000000 		call	_ZN3TCBnwEm
 287      E7800000 
 288              	.LVL22:
 289              	.LEHE0:
 290 0194 93040500 		mv	s1,a0
 291              	.LVL23:
 292              	.LBB44:
 293              	.LBB45:
  23:src/../h/tcb.hpp **** 
  24:src/../h/tcb.hpp ****     using Body = void (*)(void*);
  25:src/../h/tcb.hpp **** 
  26:src/../h/tcb.hpp ****     static int thread_create(thread_t* handle, void (*start_routine)(void*), void* arg, void* stack
  27:src/../h/tcb.hpp **** 
GAS LISTING /tmp/ccvRVdeg.s 			page 8


  28:src/../h/tcb.hpp ****     static void thread_dispatch();
  29:src/../h/tcb.hpp **** 
  30:src/../h/tcb.hpp ****     static int thread_exit();
  31:src/../h/tcb.hpp **** 
  32:src/../h/tcb.hpp ****     static void send(thread_t handle, char* message);
  33:src/../h/tcb.hpp ****     static char* receive();
  34:src/../h/tcb.hpp **** 
  35:src/../h/tcb.hpp ****     static TCB *running;
  36:src/../h/tcb.hpp **** 
  37:src/../h/tcb.hpp ****     void* operator new(size_t size);
  38:src/../h/tcb.hpp ****     void operator delete(void* address);
  39:src/../h/tcb.hpp ****     Body body;
  40:src/../h/tcb.hpp **** 
  41:src/../h/tcb.hpp **** private:
  42:src/../h/tcb.hpp **** 
  43:src/../h/tcb.hpp ****     TCB(Body body, void* arg, void* stack_space) :
  44:src/../h/tcb.hpp ****             body(body),
  45:src/../h/tcb.hpp ****             arg(arg),
  46:src/../h/tcb.hpp ****             stack((uint64*)stack_space),
  47:src/../h/tcb.hpp ****             context({(uint64) &threadWrapper,
  48:src/../h/tcb.hpp ****                      stack != nullptr ? (uint64) &stack[DEFAULT_STACK_SIZE] : 0
  49:src/../h/tcb.hpp ****                     }),
  50:src/../h/tcb.hpp ****             finished(false),
  51:src/../h/tcb.hpp ****             semClosed(false),
  52:src/../h/tcb.hpp ****             msg(nullptr),
  53:src/../h/tcb.hpp ****             full(false),
  54:src/../h/tcb.hpp ****             block(false),
  55:src/../h/tcb.hpp ****             waiting()
 294              		.loc 2 55 21
 295 0198 23303501 		sd	s3,0(a0)
 296 019c 23345501 		sd	s5,8(a0)
 297 01a0 23382501 		sd	s2,16(a0)
 298 01a4 97070000 		lla	a5,_ZN3TCB13threadWrapperEv
 298      93870700 
 299 01ac 233CF500 		sd	a5,24(a0)
  48:src/../h/tcb.hpp ****                     }),
 300              		.loc 2 48 39
 301 01b0 63000904 		beqz	s2,.L19
  48:src/../h/tcb.hpp ****                     }),
 302              		.loc 2 48 50
 303 01b4 B7860000 		li	a3,32768
 304 01b8 3309D900 		add	s2,s2,a3
 305              	.LVL24:
 306              	.L14:
 307              		.loc 2 55 21
 308 01bc 23B02403 		sd	s2,32(s1)
 309 01c0 23840402 		sb	zero,40(s1)
 310 01c4 A3840402 		sb	zero,41(s1)
 311 01c8 23B80402 		sd	zero,48(s1)
 312 01cc 238C0402 		sb	zero,56(s1)
 313 01d0 A38C0402 		sb	zero,57(s1)
 314              	.LVL25:
 315              	.LBB46:
 316              	.LBB47:
 317              		.file 3 "src/../h/list.hpp"
   1:src/../h/list.hpp **** //
   2:src/../h/list.hpp **** // Created by os on 5/17/24.
GAS LISTING /tmp/ccvRVdeg.s 			page 9


   3:src/../h/list.hpp **** //
   4:src/../h/list.hpp **** 
   5:src/../h/list.hpp **** #ifndef PROJECT_BASE_LIST_HPP
   6:src/../h/list.hpp **** #define PROJECT_BASE_LIST_HPP
   7:src/../h/list.hpp **** 
   8:src/../h/list.hpp **** #include "MemoryAllocator.hpp"
   9:src/../h/list.hpp **** 
  10:src/../h/list.hpp **** template<typename T>
  11:src/../h/list.hpp **** class List
  12:src/../h/list.hpp **** {
  13:src/../h/list.hpp **** private:
  14:src/../h/list.hpp ****     struct Elem
  15:src/../h/list.hpp ****     {
  16:src/../h/list.hpp ****         T *data;
  17:src/../h/list.hpp ****         Elem *next;
  18:src/../h/list.hpp **** 
  19:src/../h/list.hpp ****         Elem(T *data, Elem *next) : data(data), next(next) {}
  20:src/../h/list.hpp ****     };
  21:src/../h/list.hpp **** 
  22:src/../h/list.hpp ****     Elem *head, *tail;
  23:src/../h/list.hpp ****     unsigned int n;
  24:src/../h/list.hpp **** 
  25:src/../h/list.hpp **** public:
  26:src/../h/list.hpp ****     List() : head(0), tail(0), n(0) {}
 318              		.loc 3 26 35
 319 01d4 23B40404 		sd	zero,72(s1)
 320 01d8 23B80404 		sd	zero,80(s1)
 321 01dc 23AC0404 		sw	zero,88(s1)
 322              	.LVL26:
 323              	.LBE47:
 324              	.LBE46:
  56:src/../h/tcb.hpp ****     {
  57:src/../h/tcb.hpp ****         blocked = new MySemaphore(0);
 325              		.loc 2 57 9 is_stmt 1
 326              		.loc 2 57 36 is_stmt 0
 327 01e0 13050002 		li	a0,32
 328              	.LEHB1:
 329 01e4 97000000 		call	_ZN11MySemaphorenwEm@plt
 329      E7800000 
 330              	.LVL27:
 331 01ec 6F00C000 		j	.L24
 332              	.LVL28:
 333              	.L19:
  48:src/../h/tcb.hpp ****                     }),
 334              		.loc 2 48 39
 335 01f0 13090000 		li	s2,0
 336              	.LVL29:
 337 01f4 6FF09FFC 		j	.L14
 338              	.LVL30:
 339              	.L24:
 340              	.LBB48:
 341              	.LBB49:
 342              	.LBB50:
 343              	.LBB51:
 344              		.loc 3 26 35
 345 01f8 23300500 		sd	zero,0(a0)
 346 01fc 23340500 		sd	zero,8(a0)
GAS LISTING /tmp/ccvRVdeg.s 			page 10


 347 0200 23280500 		sw	zero,16(a0)
 348              	.LVL31:
 349              	.LBE51:
 350              	.LBE50:
 351              		.file 4 "src/../h/../h/MySemaphore.hpp"
   1:src/../h/../h/MySemaphore.hpp **** //
   2:src/../h/../h/MySemaphore.hpp **** // Created by os on 6/25/24.
   3:src/../h/../h/MySemaphore.hpp **** //
   4:src/../h/../h/MySemaphore.hpp **** 
   5:src/../h/../h/MySemaphore.hpp **** #ifndef PROJECT_BASE_MYSEMAPHORE_HPP
   6:src/../h/../h/MySemaphore.hpp **** #define PROJECT_BASE_MYSEMAPHORE_HPP
   7:src/../h/../h/MySemaphore.hpp **** 
   8:src/../h/../h/MySemaphore.hpp **** #include "syscall_c.hpp"
   9:src/../h/../h/MySemaphore.hpp **** #include "list.hpp"
  10:src/../h/../h/MySemaphore.hpp **** #include "scheduler.hpp"
  11:src/../h/../h/MySemaphore.hpp **** 
  12:src/../h/../h/MySemaphore.hpp **** class MySemaphore{
  13:src/../h/../h/MySemaphore.hpp **** 
  14:src/../h/../h/MySemaphore.hpp **** public:
  15:src/../h/../h/MySemaphore.hpp **** 
  16:src/../h/../h/MySemaphore.hpp ****     MySemaphore(unsigned value): value(value){}
 352              		.loc 4 16 45
 353 0204 232C0500 		sw	zero,24(a0)
 354              	.LVL32:
 355              	.LBE49:
 356              	.LBE48:
 357              		.loc 2 57 17
 358 0208 23B0A404 		sd	a0,64(s1)
  58:src/../h/tcb.hpp ****         if (body != nullptr) { Scheduler::getInstance().put(this); }
 359              		.loc 2 58 9 is_stmt 1
 360 020c 63840902 		beqz	s3,.L15
 361              		.loc 2 58 32
 362              	.LBB52:
 363              	.LBB53:
 364              		.file 5 "src/../h/scheduler.hpp"
   1:src/../h/scheduler.hpp **** //
   2:src/../h/scheduler.hpp **** // Created by os on 5/17/24.
   3:src/../h/scheduler.hpp **** //
   4:src/../h/scheduler.hpp **** 
   5:src/../h/scheduler.hpp **** #ifndef PROJECT_BASE_SCHEDULER_HPP
   6:src/../h/scheduler.hpp **** #define PROJECT_BASE_SCHEDULER_HPP
   7:src/../h/scheduler.hpp **** 
   8:src/../h/scheduler.hpp **** #include "list.hpp"
   9:src/../h/scheduler.hpp **** 
  10:src/../h/scheduler.hpp **** class TCB;
  11:src/../h/scheduler.hpp **** 
  12:src/../h/scheduler.hpp **** class Scheduler
  13:src/../h/scheduler.hpp **** {
  14:src/../h/scheduler.hpp **** private:
  15:src/../h/scheduler.hpp **** 
  16:src/../h/scheduler.hpp ****     static List<TCB> readyThreadQueue;
  17:src/../h/scheduler.hpp **** 
  18:src/../h/scheduler.hpp ****     Scheduler() = default;
  19:src/../h/scheduler.hpp ****     ~Scheduler() = default;
  20:src/../h/scheduler.hpp **** 
  21:src/../h/scheduler.hpp **** public:
  22:src/../h/scheduler.hpp **** 
GAS LISTING /tmp/ccvRVdeg.s 			page 11


  23:src/../h/scheduler.hpp **** 
  24:src/../h/scheduler.hpp ****     static TCB* get();
  25:src/../h/scheduler.hpp **** 
  26:src/../h/scheduler.hpp ****     static void put(TCB *tcb);
  27:src/../h/scheduler.hpp **** 
  28:src/../h/scheduler.hpp ****     static Scheduler& getInstance()
  29:src/../h/scheduler.hpp ****     {
  30:src/../h/scheduler.hpp ****         static Scheduler instance;
 365              		.loc 5 30 9
 366              		.loc 5 30 26 is_stmt 0
 367 0210 97070000 		lbu	a5,_ZGVZN9Scheduler11getInstanceEvE8instance
 367      83C70700 
 368 0218 63980700 		bnez	a5,.L16
 369 021c 93071000 		li	a5,1
 370 0220 17070000 		sb	a5,_ZGVZN9Scheduler11getInstanceEvE8instance,a4
 370      2300F700 
 371              	.L16:
  31:src/../h/scheduler.hpp ****         return instance;
 372              		.loc 5 31 9 is_stmt 1
 373              	.LBE53:
 374              	.LBE52:
 375              		.loc 2 58 65 is_stmt 0
 376 0228 13850400 		mv	a0,s1
 377 022c 97000000 		call	_ZN9Scheduler3putEP3TCB@plt
 377      E7800000 
 378              	.LVL33:
 379              	.LEHE1:
 380              	.L15:
 381              	.LBE45:
 382              	.LBE44:
  14:src/tcb.cpp   **** 
 383              		.loc 1 14 13
 384 0234 23309A00 		sd	s1,0(s4)
  17:src/tcb.cpp   ****     {
 385              		.loc 1 17 5 is_stmt 1
 386 0238 63860402 		beqz	s1,.L20
  22:src/tcb.cpp   **** }
 387              		.loc 1 22 12 is_stmt 0
 388 023c 13050000 		li	a0,0
 389              	.L22:
  23:src/tcb.cpp   **** 
 390              		.loc 1 23 1
 391 0240 83308103 		ld	ra,56(sp)
 392              		.cfi_remember_state
 393              		.cfi_restore 1
 394 0244 03340103 		ld	s0,48(sp)
 395              		.cfi_restore 8
 396              		.cfi_def_cfa 2, 64
 397 0248 83348102 		ld	s1,40(sp)
 398              		.cfi_restore 9
 399 024c 03390102 		ld	s2,32(sp)
 400              		.cfi_restore 18
 401 0250 83398101 		ld	s3,24(sp)
 402              		.cfi_restore 19
 403              	.LVL34:
 404 0254 033A0101 		ld	s4,16(sp)
 405              		.cfi_restore 20
GAS LISTING /tmp/ccvRVdeg.s 			page 12


 406              	.LVL35:
 407 0258 833A8100 		ld	s5,8(sp)
 408              		.cfi_restore 21
 409              	.LVL36:
 410 025c 13010104 		addi	sp,sp,64
 411              		.cfi_def_cfa_offset 0
 412 0260 67800000 		jr	ra
 413              	.LVL37:
 414              	.L20:
 415              		.cfi_restore_state
  19:src/tcb.cpp   ****     }
 416              		.loc 1 19 17
 417 0264 1305F0FF 		li	a0,-1
 418 0268 6FF09FFD 		j	.L22
 419              	.LVL38:
 420              	.L21:
 421 026c 13090500 		mv	s2,a0
  14:src/tcb.cpp   **** 
 422              		.loc 1 14 54
 423 0270 13850400 		mv	a0,s1
 424 0274 97000000 		call	_ZN3TCBdlEPv
 424      E7800000 
 425              	.LVL39:
 426 027c 13050900 		mv	a0,s2
 427              	.LEHB2:
 428 0280 97000000 		call	_Unwind_Resume@plt
 428      E7800000 
 429              	.LVL40:
 430              	.LEHE2:
 431              		.cfi_endproc
 432              	.LFE39:
 433              		.globl	__gxx_personality_v0
 434              		.section	.gcc_except_table,"a",@progbits
 435              	.LLSDA39:
 436 0000 FF       		.byte	0xff
 437 0001 FF       		.byte	0xff
 438 0002 03       		.byte	0x3
 439 0003 27       		.byte	0x27
 440 0004 00000000 		.4byte	.LEHB0-.LFB39
 441 0008 00000000 		.4byte	.LEHE0-.LEHB0
 442 000c 00000000 		.4byte	0
 443 0010 00       		.byte	0
 444 0011 00000000 		.4byte	.LEHB1-.LFB39
 445 0015 00000000 		.4byte	.LEHE1-.LEHB1
 446 0019 00000000 		.4byte	.L21-.LFB39
 447 001d 00       		.byte	0
 448 001e 00000000 		.4byte	.LEHB2-.LFB39
 449 0022 00000000 		.4byte	.LEHE2-.LEHB2
 450 0026 00000000 		.4byte	0
 451 002a 00       		.byte	0
 452              		.text
 454              		.align	2
 455              		.globl	_ZN3TCB4sendEPS_Pc
 457              	_ZN3TCB4sendEPS_Pc:
 458              	.LFB45:
  60:src/tcb.cpp   **** 
  61:src/tcb.cpp   **** void TCB::send(thread_t handle, char *message)
GAS LISTING /tmp/ccvRVdeg.s 			page 13


  62:src/tcb.cpp   **** {
 459              		.loc 1 62 1 is_stmt 1
 460              		.cfi_startproc
 461              	.LVL41:
 462 0288 130101FD 		addi	sp,sp,-48
 463              		.cfi_def_cfa_offset 48
 464 028c 23341102 		sd	ra,40(sp)
 465 0290 23308102 		sd	s0,32(sp)
 466 0294 233C9100 		sd	s1,24(sp)
 467 0298 23382101 		sd	s2,16(sp)
 468 029c 23343101 		sd	s3,8(sp)
 469 02a0 23304101 		sd	s4,0(sp)
 470              		.cfi_offset 1, -8
 471              		.cfi_offset 8, -16
 472              		.cfi_offset 9, -24
 473              		.cfi_offset 18, -32
 474              		.cfi_offset 19, -40
 475              		.cfi_offset 20, -48
 476 02a4 13040103 		addi	s0,sp,48
 477              		.cfi_def_cfa 8, 0
 478 02a8 93040500 		mv	s1,a0
 479 02ac 13890500 		mv	s2,a1
  63:src/tcb.cpp   ****     if(handle->full)
 480              		.loc 1 63 5
 481              		.loc 1 63 16 is_stmt 0
 482 02b0 83478503 		lbu	a5,56(a0)
 483              		.loc 1 63 5
 484 02b4 639C0702 		bnez	a5,.L31
 485              	.LVL42:
 486              	.L26:
  64:src/tcb.cpp   ****     {
  65:src/tcb.cpp   ****         handle->waiting.addLast(&running->blocked);
  66:src/tcb.cpp   ****         sem_wait(running->blocked);
  67:src/tcb.cpp   ****     }
  68:src/tcb.cpp   **** 
  69:src/tcb.cpp   ****     handle->msg = message;
 487              		.loc 1 69 5 is_stmt 1
 488              		.loc 1 69 17 is_stmt 0
 489 02b8 23B82403 		sd	s2,48(s1)
  70:src/tcb.cpp   ****     handle->full = true;
 490              		.loc 1 70 5 is_stmt 1
 491              		.loc 1 70 18 is_stmt 0
 492 02bc 93071000 		li	a5,1
 493 02c0 238CF402 		sb	a5,56(s1)
  71:src/tcb.cpp   **** 
  72:src/tcb.cpp   ****     if(handle->block)
 494              		.loc 1 72 5 is_stmt 1
 495              		.loc 1 72 16 is_stmt 0
 496 02c4 83C79403 		lbu	a5,57(s1)
 497              		.loc 1 72 5
 498 02c8 63940708 		bnez	a5,.L32
 499              	.L25:
  73:src/tcb.cpp   ****     {
  74:src/tcb.cpp   ****         handle->block = false;
  75:src/tcb.cpp   ****         sem_signal(handle->blocked);
  76:src/tcb.cpp   ****     }
  77:src/tcb.cpp   **** }
GAS LISTING /tmp/ccvRVdeg.s 			page 14


 500              		.loc 1 77 1
 501 02cc 83308102 		ld	ra,40(sp)
 502              		.cfi_remember_state
 503              		.cfi_restore 1
 504 02d0 03340102 		ld	s0,32(sp)
 505              		.cfi_restore 8
 506              		.cfi_def_cfa 2, 48
 507 02d4 83348101 		ld	s1,24(sp)
 508              		.cfi_restore 9
 509              	.LVL43:
 510 02d8 03390101 		ld	s2,16(sp)
 511              		.cfi_restore 18
 512              	.LVL44:
 513 02dc 83398100 		ld	s3,8(sp)
 514              		.cfi_restore 19
 515 02e0 033A0100 		ld	s4,0(sp)
 516              		.cfi_restore 20
 517 02e4 13010103 		addi	sp,sp,48
 518              		.cfi_def_cfa_offset 0
 519 02e8 67800000 		jr	ra
 520              	.LVL45:
 521              	.L31:
 522              		.cfi_restore_state
  65:src/tcb.cpp   ****         sem_wait(running->blocked);
 523              		.loc 1 65 9 is_stmt 1
  65:src/tcb.cpp   ****         sem_wait(running->blocked);
 524              		.loc 1 65 32 is_stmt 0
 525 02ec 93098504 		addi	s3,a0,72
  65:src/tcb.cpp   ****         sem_wait(running->blocked);
 526              		.loc 1 65 43
 527 02f0 170A0000 		ld	s4,.LANCHOR0
 527      033A0A00 
  65:src/tcb.cpp   ****         sem_wait(running->blocked);
 528              		.loc 1 65 32
 529 02f8 130A0A04 		addi	s4,s4,64
 530              	.LVL46:
 531              	.LBB56:
 532              	.LBB57:
  27:src/../h/list.hpp **** 
  28:src/../h/list.hpp ****     List(const List<T> &) = delete;
  29:src/../h/list.hpp **** 
  30:src/../h/list.hpp ****     List<T> &operator=(const List<T> &) = delete;
  31:src/../h/list.hpp **** 
  32:src/../h/list.hpp ****     unsigned int numberOfElements()
  33:src/../h/list.hpp ****     {
  34:src/../h/list.hpp ****         return n;
  35:src/../h/list.hpp ****     };
  36:src/../h/list.hpp **** 
  37:src/../h/list.hpp ****     void addFirst(T *data)
  38:src/../h/list.hpp ****     {
  39:src/../h/list.hpp ****         Elem *elem = new Elem(data, head);
  40:src/../h/list.hpp ****         head = elem;
  41:src/../h/list.hpp ****         if (!tail) { tail = head; }
  42:src/../h/list.hpp ****         n++;
  43:src/../h/list.hpp ****     }
  44:src/../h/list.hpp **** 
  45:src/../h/list.hpp ****     void addLast(T *data)
GAS LISTING /tmp/ccvRVdeg.s 			page 15


  46:src/../h/list.hpp ****     {
  47:src/../h/list.hpp **** 
  48:src/../h/list.hpp ****         Elem* elem = (Elem*) MemoryAllocator::mem_alloc((sizeof(Elem) + MEM_BLOCK_SIZE - 1) / MEM_B
 533              		.loc 3 48 56
 534 02fc 13051000 		li	a0,1
 535 0300 97000000 		call	_ZN15MemoryAllocator9mem_allocEm@plt
 535      E7800000 
 536              	.LVL47:
  49:src/../h/list.hpp ****         elem->data = data;
 537              		.loc 3 49 9
 538 0308 23304501 		sd	s4,0(a0)
  50:src/../h/list.hpp ****         elem->next = nullptr;
 539              		.loc 3 50 9
 540 030c 23340500 		sd	zero,8(a0)
  51:src/../h/list.hpp **** 
  52:src/../h/list.hpp ****         if (tail)
 541              		.loc 3 52 13
 542 0310 83B78900 		ld	a5,8(s3)
 543              		.loc 3 52 9
 544 0314 63880702 		beqz	a5,.L27
  53:src/../h/list.hpp ****         {
  54:src/../h/list.hpp ****             tail->next = elem;
 545              		.loc 3 54 13
 546 0318 23B4A700 		sd	a0,8(a5)
  55:src/../h/list.hpp ****             tail = elem;
 547              		.loc 3 55 13
 548 031c 23B4A900 		sd	a0,8(s3)
 549              	.L28:
  56:src/../h/list.hpp ****         }
  57:src/../h/list.hpp **** 
  58:src/../h/list.hpp ****         else
  59:src/../h/list.hpp ****         {
  60:src/../h/list.hpp ****             head = tail = elem;
  61:src/../h/list.hpp ****         }
  62:src/../h/list.hpp **** 
  63:src/../h/list.hpp ****         n++;
 550              		.loc 3 63 9
 551 0320 83A70901 		lw	a5,16(s3)
 552 0324 9B871700 		addiw	a5,a5,1
 553 0328 23A8F900 		sw	a5,16(s3)
 554              	.LVL48:
 555              	.LBE57:
 556              	.LBE56:
  66:src/tcb.cpp   ****     }
 557              		.loc 1 66 9 is_stmt 1
  66:src/tcb.cpp   ****     }
 558              		.loc 1 66 17 is_stmt 0
 559 032c 97070000 		ld	a5,.LANCHOR0
 559      83B70700 
 560 0334 03B50704 		ld	a0,64(a5)
 561              	.LVL49:
 562 0338 97000000 		call	_Z8sem_waitP11MySemaphore@plt
 562      E7800000 
 563              	.LVL50:
 564 0340 6FF09FF7 		j	.L26
 565              	.LVL51:
 566              	.L27:
GAS LISTING /tmp/ccvRVdeg.s 			page 16


 567              	.LBB59:
 568              	.LBB58:
  60:src/../h/list.hpp ****         }
 569              		.loc 3 60 13
 570 0344 23B4A900 		sd	a0,8(s3)
 571 0348 23B4A404 		sd	a0,72(s1)
 572 034c 6FF05FFD 		j	.L28
 573              	.LVL52:
 574              	.L32:
 575              	.LBE58:
 576              	.LBE59:
  74:src/tcb.cpp   ****         sem_signal(handle->blocked);
 577              		.loc 1 74 9 is_stmt 1
  74:src/tcb.cpp   ****         sem_signal(handle->blocked);
 578              		.loc 1 74 23 is_stmt 0
 579 0350 A38C0402 		sb	zero,57(s1)
  75:src/tcb.cpp   ****     }
 580              		.loc 1 75 9 is_stmt 1
  75:src/tcb.cpp   ****     }
 581              		.loc 1 75 19 is_stmt 0
 582 0354 03B50404 		ld	a0,64(s1)
 583 0358 97000000 		call	_Z10sem_signalP11MySemaphore@plt
 583      E7800000 
 584              	.LVL53:
 585              		.loc 1 77 1
 586 0360 6FF0DFF6 		j	.L25
 587              		.cfi_endproc
 588              	.LFE45:
 590              		.align	2
 591              		.globl	_ZN3TCB7receiveEv
 593              	_ZN3TCB7receiveEv:
 594              	.LFB46:
  78:src/tcb.cpp   **** 
  79:src/tcb.cpp   **** char *TCB::receive()
  80:src/tcb.cpp   **** {
 595              		.loc 1 80 1 is_stmt 1
 596              		.cfi_startproc
 597 0364 130101FE 		addi	sp,sp,-32
 598              		.cfi_def_cfa_offset 32
 599 0368 233C1100 		sd	ra,24(sp)
 600 036c 23388100 		sd	s0,16(sp)
 601 0370 23349100 		sd	s1,8(sp)
 602 0374 23302101 		sd	s2,0(sp)
 603              		.cfi_offset 1, -8
 604              		.cfi_offset 8, -16
 605              		.cfi_offset 9, -24
 606              		.cfi_offset 18, -32
 607 0378 13040102 		addi	s0,sp,32
 608              		.cfi_def_cfa 8, 0
  81:src/tcb.cpp   ****     if(!running->full)
 609              		.loc 1 81 5
 610              		.loc 1 81 18 is_stmt 0
 611 037c 97070000 		ld	a5,.LANCHOR0
 611      83B70700 
 612 0384 03C78703 		lbu	a4,56(a5)
 613              		.loc 1 81 5
 614 0388 630A0706 		beqz	a4,.L40
GAS LISTING /tmp/ccvRVdeg.s 			page 17


 615              	.L34:
  82:src/tcb.cpp   ****     {
  83:src/tcb.cpp   ****         running->block = true;
  84:src/tcb.cpp   ****         sem_wait(running->blocked);
  85:src/tcb.cpp   ****     }
  86:src/tcb.cpp   **** 
  87:src/tcb.cpp   ****     running->full = false;
 616              		.loc 1 87 5 is_stmt 1
 617              		.loc 1 87 14 is_stmt 0
 618 038c 97070000 		ld	a5,.LANCHOR0
 618      83B70700 
 619              		.loc 1 87 19
 620 0394 238C0702 		sb	zero,56(a5)
  88:src/tcb.cpp   **** 
  89:src/tcb.cpp   ****     sem_t *sem = running->waiting.removeFirst();
 621              		.loc 1 89 5 is_stmt 1
 622              		.loc 1 89 46 is_stmt 0
 623 0398 93848704 		addi	s1,a5,72
 624              	.LVL54:
 625              	.LBB62:
 626              	.LBB63:
  64:src/../h/list.hpp ****     }
  65:src/../h/list.hpp **** 
  66:src/../h/list.hpp ****     T *removeFirst()
  67:src/../h/list.hpp ****     {
  68:src/../h/list.hpp ****         if (!head) { return 0; }
 627              		.loc 3 68 14
 628 039c 03B58704 		ld	a0,72(a5)
 629              		.loc 3 68 9
 630 03a0 630E0506 		beqz	a0,.L38
 631              	.LVL55:
  69:src/../h/list.hpp **** 
  70:src/../h/list.hpp ****         Elem *elem = head;
  71:src/../h/list.hpp ****         head = head->next;
 632              		.loc 3 71 22
 633 03a4 03378500 		ld	a4,8(a0)
 634              		.loc 3 71 9
 635 03a8 23B4E704 		sd	a4,72(a5)
  72:src/../h/list.hpp ****         if (!head) { tail = 0; }
 636              		.loc 3 72 9
 637 03ac 63040706 		beqz	a4,.L41
 638              	.L36:
  73:src/../h/list.hpp **** 
  74:src/../h/list.hpp ****         T *ret = elem->data;
 639              		.loc 3 74 12
 640 03b0 03390500 		ld	s2,0(a0)
 641              	.LVL56:
  75:src/../h/list.hpp **** 
  76:src/../h/list.hpp ****         MemoryAllocator::mem_free(elem);
 642              		.loc 3 76 34
 643 03b4 97000000 		call	_ZN15MemoryAllocator8mem_freeEPv@plt
 643      E7800000 
 644              	.LVL57:
  77:src/../h/list.hpp **** 
  78:src/../h/list.hpp ****         n--;
 645              		.loc 3 78 9
 646 03bc 83A70401 		lw	a5,16(s1)
GAS LISTING /tmp/ccvRVdeg.s 			page 18


 647 03c0 9B87F7FF 		addiw	a5,a5,-1
 648 03c4 23A8F400 		sw	a5,16(s1)
 649              	.LVL58:
 650              	.L35:
 651              	.LBE63:
 652              	.LBE62:
  90:src/tcb.cpp   ****     
  91:src/tcb.cpp   ****     if(sem)
 653              		.loc 1 91 5 is_stmt 1
 654 03c8 63080900 		beqz	s2,.L37
  92:src/tcb.cpp   ****     {
  93:src/tcb.cpp   ****         sem_signal(*sem);
 655              		.loc 1 93 9
 656              		.loc 1 93 19 is_stmt 0
 657 03cc 03350900 		ld	a0,0(s2)
 658 03d0 97000000 		call	_Z10sem_signalP11MySemaphore@plt
 658      E7800000 
 659              	.LVL59:
 660              	.L37:
  94:src/tcb.cpp   ****     }
  95:src/tcb.cpp   **** 
  96:src/tcb.cpp   **** 
  97:src/tcb.cpp   ****     return running->msg;
 661              		.loc 1 97 5 is_stmt 1
  98:src/tcb.cpp   **** }
 662              		.loc 1 98 1 is_stmt 0
 663 03d8 97070000 		ld	a5,.LANCHOR0
 663      83B70700 
 664 03e0 03B50703 		ld	a0,48(a5)
 665 03e4 83308101 		ld	ra,24(sp)
 666              		.cfi_remember_state
 667              		.cfi_restore 1
 668 03e8 03340101 		ld	s0,16(sp)
 669              		.cfi_restore 8
 670              		.cfi_def_cfa 2, 32
 671 03ec 83348100 		ld	s1,8(sp)
 672              		.cfi_restore 9
 673 03f0 03390100 		ld	s2,0(sp)
 674              		.cfi_restore 18
 675              	.LVL60:
 676 03f4 13010102 		addi	sp,sp,32
 677              		.cfi_def_cfa_offset 0
 678 03f8 67800000 		jr	ra
 679              	.L40:
 680              		.cfi_restore_state
  83:src/tcb.cpp   ****         sem_wait(running->blocked);
 681              		.loc 1 83 9 is_stmt 1
  83:src/tcb.cpp   ****         sem_wait(running->blocked);
 682              		.loc 1 83 24 is_stmt 0
 683 03fc 13071000 		li	a4,1
 684 0400 A38CE702 		sb	a4,57(a5)
  84:src/tcb.cpp   ****     }
 685              		.loc 1 84 9 is_stmt 1
  84:src/tcb.cpp   ****     }
 686              		.loc 1 84 17 is_stmt 0
 687 0404 03B50704 		ld	a0,64(a5)
 688 0408 97000000 		call	_Z8sem_waitP11MySemaphore@plt
GAS LISTING /tmp/ccvRVdeg.s 			page 19


 688      E7800000 
 689              	.LVL61:
 690 0410 6FF0DFF7 		j	.L34
 691              	.LVL62:
 692              	.L41:
 693              	.LBB65:
 694              	.LBB64:
  72:src/../h/list.hpp **** 
 695              		.loc 3 72 22
 696 0414 23B40400 		sd	zero,8(s1)
 697 0418 6FF09FF9 		j	.L36
 698              	.LVL63:
 699              	.L38:
  68:src/../h/list.hpp **** 
 700              		.loc 3 68 29
 701 041c 13090500 		mv	s2,a0
 702 0420 6FF09FFA 		j	.L35
 703              	.LBE64:
 704              	.LBE65:
 705              		.cfi_endproc
 706              	.LFE46:
 708              		.globl	_ZN3TCB7runningE
 709              		.weak	_ZGVZN9Scheduler11getInstanceEvE8instance
 710              		.section	.bss._ZGVZN9Scheduler11getInstanceEvE8instance,"awG",@nobits,_ZGVZN9Scheduler11getInstanc
 711              		.align	3
 714              	_ZGVZN9Scheduler11getInstanceEvE8instance:
 715 0000 00000000 		.zero	8
 715      00000000 
 716              		.bss
 717              		.align	3
 718              		.set	.LANCHOR0,. + 0
 721              	_ZN3TCB7runningE:
 722 0000 00000000 		.zero	8
 722      00000000 
 723              		.text
 724              	.Letext0:
 725              		.file 6 "src/../h/../lib/hw.h"
 726              		.file 7 "src/../h/MemoryAllocator.hpp"
 727              		.file 8 "src/../h/../h/syscall_c.hpp"
 728              		.file 9 "src/../h/riscv.hpp"
 4924              		.align	3
 4927              	DW.ref.__gxx_personality_v0:
 4928 0000 00000000 		.dword	__gxx_personality_v0
 4928      00000000 
 4929              		.ident	"GCC: (Ubuntu 9.4.0-1ubuntu1~20.04) 9.4.0"
 4930              		.section	.note.GNU-stack,"",@progbits
GAS LISTING /tmp/ccvRVdeg.s 			page 20

